CCS PCH C Compiler, Version 4.105, 13255               02-Ago-12 21:42

               Filename: G:\Project\pic\CCS\MMA7455l\Nucleo.lst

               ROM used: 1340 bytes (2%)
                         Largest free fragment is 64196
               RAM used: 21 (1%) at main() level
                         41 (1%) worst case
               Stack:    5 locations

*
00000:  GOTO   0442
....................  
.................... #include "Nucleo.h" 
.................... #include <18F4620.h> 
.................... //////// Standard Header file for the PIC18F4620 device //////////////// 
.................... #device PIC18F4620 
.................... #list 
....................  
.................... #device adc=10 
....................  
.................... #FUSES NOWDT                 	//No Watch Dog Timer 
.................... #FUSES WDT128                	//Watch Dog Timer uses 1:128 Postscale 
.................... #FUSES HS                    	//High speed Osc (> 4mhz for PCM/PCH) (>10mhz for PCD) 
.................... #FUSES NOPROTECT             	//Code not protected from reading 
.................... #FUSES IESO                  	//Internal External Switch Over mode enabled 
.................... #FUSES NOBROWNOUT            	//No brownout reset 
.................... #FUSES BORV21                	//Brownout reset at 2.1V 
.................... #FUSES NOPUT                 	//No Power Up Timer 
.................... #FUSES NOCPD                 	//No EE protection 
.................... #FUSES STVREN                	//Stack full/underflow will cause reset 
.................... #FUSES NODEBUG               	//No Debug mode for ICD 
.................... #FUSES NOLVP                 	//No low voltage prgming, B3(PIC16) or B5(PIC18) used for I/O 
.................... #FUSES NOWRT                 	//Program memory not write protected 
.................... #FUSES NOWRTD                	//Data EEPROM not write protected 
.................... #FUSES NOEBTR                	//Memory not protected from table reads 
.................... #FUSES NOCPB                 	//No Boot Block code protection 
.................... #FUSES NOEBTRB               	//Boot block not protected from table reads 
.................... #FUSES NOWRTC                	//configuration not registers write protected 
.................... #FUSES NOWRTB                	//Boot block not write protected 
.................... #FUSES FCMEN                 	//Fail-safe clock monitor enabled 
.................... #FUSES NOXINST               	//Extended set extension and Indexed Addressing mode disabled (Legacy mode) 
.................... #FUSES PBADEN                	//PORTB pins are configured as analog input channels on RESET 
.................... #FUSES LPT1OSC               	//Timer1 configured for low-power operation 
.................... #FUSES MCLR                  	//Master Clear pin enabled 
....................  
.................... #use delay(clock=10000000) 
*
00032:  CLRF   FEA
00034:  MOVLW  1E
00036:  MOVWF  FE9
00038:  MOVF   FEF,W
0003A:  BZ    0058
0003C:  MOVLW  03
0003E:  MOVWF  01
00040:  CLRF   00
00042:  DECFSZ 00,F
00044:  BRA    0042
00046:  DECFSZ 01,F
00048:  BRA    0040
0004A:  MOVLW  3C
0004C:  MOVWF  00
0004E:  DECFSZ 00,F
00050:  BRA    004E
00052:  BRA    0054
00054:  DECFSZ FEF,F
00056:  BRA    003C
00058:  RETLW  00
.................... #use rs232(baud=9600,parity=N,xmit=PIN_C6,rcv=PIN_C7,bits=8) 
.................... #use i2c(master, sda=PIN_C4, scl=PIN_C3, FORCE_HW, RESTART_WDT)                    //directiva de compilador par ale uso del bus I2C del microcontrolador 
0005A:  BCF    FC6.7
0005C:  BCF    F9E.3
0005E:  MOVFF  28,FC9
00062:  MOVLW  02
00064:  BTFSC  FC6.7
00066:  BRA    0072
00068:  BTFSS  F9E.3
0006A:  BRA    0068
0006C:  MOVLW  00
0006E:  BTFSC  FC5.6
00070:  MOVLW  01
00072:  MOVWF  01
00074:  RETLW  00
*
000F8:  BCF    FC6.6
000FA:  BSF    FC5.3
000FC:  BTFSC  FC5.3
000FE:  BRA    00FC
00100:  BTFSC  00.0
00102:  BCF    FC5.5
00104:  BTFSS  00.0
00106:  BSF    FC5.5
00108:  BSF    FC5.4
0010A:  BTFSC  FC5.4
0010C:  BRA    010A
0010E:  MOVFF  FC9,01
00112:  GOTO   0170 (RETURN)
....................  
.................... #include <stdio.h> 
.................... /////////////////////////////////////////////////////////////////////////// 
.................... ////        (C) Copyright 1996,2003 Custom Computer Services           //// 
.................... //// This source code may only be used by licensed users of the CCS C  //// 
.................... //// compiler.  This source code may only be distributed to other      //// 
.................... //// licensed users of the CCS C compiler.  No other use, reproduction //// 
.................... //// or distribution is permitted without written permission.          //// 
.................... //// Derivative programs created using this software in object code    //// 
.................... //// form are not restricted in any way.                               //// 
.................... /////////////////////////////////////////////////////////////////////////// 
....................  
.................... #ifndef _STDIO 
.................... #define _STDIO 
.................... #include <string.h> 
.................... //////////////////////////////////////////////////////////////////////////// 
.................... ////        (C) Copyright 1996,2008 Custom Computer Services            //// 
.................... //// This source code may only be used by licensed users of the CCS C   //// 
.................... //// compiler.  This source code may only be distributed to other       //// 
.................... //// licensed users of the CCS C compiler.  No other use, reproduction  //// 
.................... //// or distribution is permitted without written permission.           //// 
.................... //// Derivative programs created using this software in object code     //// 
.................... //// form are not restricted in any way.                                //// 
.................... //////////////////////////////////////////////////////////////////////////// 
....................  
.................... #ifndef _STRING 
.................... #define _STRING 
.................... #include <stddef.h> 
.................... /////////////////////////////////////////////////////////////////////////// 
.................... ////        (C) Copyright 1996,2003 Custom Computer Services           //// 
.................... //// This source code may only be used by licensed users of the CCS C  //// 
.................... //// compiler.  This source code may only be distributed to other      //// 
.................... //// licensed users of the CCS C compiler.  No other use, reproduction //// 
.................... //// or distribution is permitted without written permission.          //// 
.................... //// Derivative programs created using this software in object code    //// 
.................... //// form are not restricted in any way.                               //// 
.................... /////////////////////////////////////////////////////////////////////////// 
....................  
.................... #ifndef _STDDEF 
....................  
.................... #define _STDDEF 
....................  
.................... #if sizeof(unsigned int8 *)==1 
.................... #define ptrdiff_t unsigned int8 
.................... #else 
.................... #define ptrdiff_t unsigned int16 
.................... #endif 
....................  
.................... #define size_t unsigned int8 
.................... #define wchar_t char 
.................... #define NULL 0 
....................  
.................... #define offsetof(s,f) (offsetofbit(s,f)/8) 
....................  
.................... #endif 
....................  
.................... #include <ctype.h> 
.................... //////////////////////////////////////////////////////////////////////////// 
.................... ////        (C) Copyright 1996,2003 Custom Computer Services            //// 
.................... //// This source code may only be used by licensed users of the CCS C   //// 
.................... //// compiler.  This source code may only be distributed to other       //// 
.................... //// licensed users of the CCS C compiler.  No other use, reproduction  //// 
.................... //// or distribution is permitted without written permission.           //// 
.................... //// Derivative programs created using this software in object code     //// 
.................... //// form are not restricted in any way.                                //// 
.................... //////////////////////////////////////////////////////////////////////////// 
....................  
.................... #ifndef _CTYPE 
.................... #define _CTYPE 
....................  
.................... #define islower(x)  isamong(x,"abcdefghijklmnopqrstuvwxyz") 
.................... #define isupper(x)  isamong(x,"ABCDEFGHIJKLMNOPQRSTUVWXYZ") 
.................... #define isalnum(x)  isamong(x,"0123456789ABCDEFGHIJKLMNOPQRSTUVWXYZabcdefghijklmnopqrstuvwxyz") 
.................... #define isalpha(x)  isamong(x,"ABCDEFGHIJKLMNOPQRSTUVWXYZabcdefghijklmnopqrstuvwxyz") 
.................... #define isdigit(x)  isamong(x,"0123456789") 
.................... #define isspace(x)  ((x)==' ') 
.................... #define isxdigit(x) isamong(x,"0123456789ABCDEFabcdef") 
.................... #define iscntrl(x)  ((x)<' ') 
.................... #define isprint(x)  ((x)>=' ') 
.................... #define isgraph(x)  ((x)>' ') 
.................... #define ispunct(x)  (((x)>' ')&&!isalnum(x)) 
....................  
.................... #endif 
....................  
....................  
....................  
....................  
....................  
.................... ////////////////////////////////////////////// 
.................... //// Uncomment the following define to    //// 
.................... //// allow some functions to use a        //// 
.................... //// quicker algorithm, but use more ROM  //// 
.................... ////                                      //// 
.................... //// #define FASTER_BUT_MORE_ROM          //// 
.................... ////////////////////////////////////////////// 
....................  
....................  
....................  
.................... /*Copying functions*/ 
.................... /* standard template: 
....................    void *memmove(void *s1, void *s2, size_t n). 
....................    Copies max of n characters safely (not following ending '\0') 
....................    from s2 in s1; if s2 has less than n characters, appends 0 */ 
....................  
.................... char *memmove(void *s1,char *s2,size_t n) 
.................... { 
....................    char *sc1; 
....................    char *sc2; 
....................    sc1=s1; 
....................    sc2=s2; 
....................    if(sc2<sc1 && sc1 <sc2 +n) 
....................       for(sc1+=n,sc2+=n;0<n;--n) 
....................          *--sc1=*--sc2; 
....................    else 
....................       for(;0<n;--n) 
....................          *sc1++=*sc2++; 
....................   return s1; 
....................   } 
....................  
.................... /* Standard template: char *strcpy(char *s1, const char *s2) 
....................    copies the string s2 including the null character to s1. 
....................    This is a compiler built in to handle the different address 
....................    spaces */ 
....................  
.................... #define strcopy strcpy 
....................  
.................... /* standard template: 
....................    char *strncpy(char *s1, const char *s2, size_t n). 
....................    Copies max of n characters (not following ending '\0') 
....................    from s2 in s1; if s2 has less than n characters, appends 0 */ 
....................  
.................... char *strncpy(char *s1, char *s2, size_t n) 
.................... { 
....................   char *s; 
....................  
....................   for (s = s1; n > 0 && *s2 != '\0'; n--) 
....................      *s++ = *s2++; 
....................   for (; n > 0; n--) 
....................      *s++ = '\0'; 
....................  
....................   return(s1); 
.................... } 
.................... /***********************************************************/ 
....................  
.................... /*concatenation functions*/ 
.................... /* standard template: char *strcat(char *s1, const char *s2) 
.................... appends s2 to s1*/ 
....................  
.................... char *strcat(char *s1, char *s2) 
.................... { 
....................    char *s; 
....................  
....................    for (s = s1; *s != '\0'; ++s); 
....................    while(*s2 != '\0') 
....................    { 
....................       *s = *s2; 
....................       ++s; 
....................       ++s2; 
....................    } 
....................  
....................    *s = '\0'; 
....................    return(s1); 
.................... } 
.................... /* standard template: char *strncat(char *s1, char *s2,size_t n) 
.................... appends not more than n characters from s2 to s1*/ 
....................  
.................... char *strncat(char *s1, char *s2, size_t n) 
.................... { 
....................    char *s; 
....................  
....................    for (s = s1; *s != '\0'; ++s); 
....................    while(*s2 != '\0' && 0<n) 
....................    { 
....................       *s = *s2; 
....................       ++s; 
....................       ++s2; 
....................       --n; 
....................    } 
....................  
....................    *s = '\0'; 
....................    return(s1); 
.................... } 
....................  
.................... /***********************************************************/ 
....................  
....................  
.................... /*comparison functions*/ 
.................... /* standard template: signed int memcmp(void *s1, void *s2). 
....................    Compares s1 & s2; returns -1 if s1<s2, 0 if s1=s2, 1 if s1>s2 */ 
....................  
.................... signed int8 memcmp(void * s1,char *s2,size_t n) 
.................... { 
.................... char *su1, *su2; 
.................... for(su1=s1, su2=s2; 0<n; ++su1, ++su2, --n) 
.................... { 
....................    if(*su1!=*su2) 
....................       return ((*su1<*su2)?-1:+1); 
.................... } 
.................... return 0; 
.................... } 
....................  
.................... /* standard template: int strcmp(const char *s1, const char *s2). 
....................    Compares s1 & s2; returns -1 if s1<s2, 0 if s1=s2, 1 if s1>s2 */ 
....................  
.................... signed int8 strcmp(char *s1, char *s2) 
.................... { 
....................    for (; *s1 == *s2; s1++, s2++) 
....................       if (*s1 == '\0') 
....................          return(0); 
....................    return((*s1 < *s2) ? -1: 1); 
.................... } 
.................... /* standard template: int strcoll(const char *s1, const char *s2). 
....................    Compares s1 & s2; returns -1 if s1<s2, 0 if s1=s2, 1 if s1>s2 */ 
....................  
.................... signed int8 strcoll(char *s1, char *s2) 
.................... { 
....................    for (; *s1 == *s2; s1++, s2++) 
....................       if (*s1 == '\0') 
....................          return(0); 
....................    return((*s1 < *s2) ? -1: 1); 
.................... } 
....................  
.................... /* standard template: 
....................    int strncmp(const char *s1, const char *s2, size_t n). 
....................    Compares max of n characters (not following 0) from s1 to s2; 
....................    returns same as strcmp */ 
....................  
.................... signed int8 strncmp(char *s1, char *s2, size_t n) 
.................... { 
....................    for (; n > 0; s1++, s2++, n--) 
....................       if (*s1 != *s2) 
....................          return((*s1 <*s2) ? -1: 1); 
....................       else if (*s1 == '\0') 
....................          return(0); 
....................    return(0); 
.................... } 
.................... /* standard template: 
....................    int strxfrm(const char *s1, const char *s2, size_t n). 
....................    transforms maximum of n characters from s2 and places them into s1*/ 
.................... size_t strxfrm(char *s1, char *s2, size_t n) 
.................... { 
....................   char *s; 
....................   unsigned int8 n1; 
....................   n1=n; 
....................   for (s = s1; n > 0 && *s2 != '\0'; n--) 
....................      *s++ = *s2++; 
....................   for (; n > 0; n--) 
....................      *s++ = '\0'; 
....................  
....................   return(n1); 
.................... } 
....................  
....................  
....................  
....................  
....................  
.................... /***********************************************************/ 
.................... /*Search functions*/ 
.................... /* standard template: void *memchr(const char *s, int c). 
....................    Finds first occurrence of c in n characters of s */ 
....................  
.................... char *memchr(void *s,unsigned int8 c,size_t n) 
.................... { 
....................    char uc; 
....................    char *su; 
....................    uc=c; 
....................    for(su=s;0<n;++su,--n) 
....................       if(*su==uc) 
....................       return su; 
....................    return NULL; 
.................... } 
....................  
.................... /* standard template: char *strchr(const char *s, int c). 
....................    Finds first occurrence of c in s */ 
....................  
.................... char *strchr(char *s, unsigned int8 c) 
.................... { 
....................    for (; *s != c; s++) 
....................       if (*s == '\0') 
....................          return(0); 
....................    return(s); 
.................... } 
.................... /* standard template: 
....................    size_t strcspn(const char *s1, const char *s2). 
....................    Computes length of max initial segment of s1 that 
....................    consists entirely of characters NOT from s2*/ 
....................  
.................... unsigned int8  strcspn(char *s1, char *s2) 
.................... { 
....................    char *sc1, *sc2; 
....................  
....................    for (sc1 = s1; *sc1 != 0; sc1++) 
....................       for (sc2 = s2; *sc2 != 0; sc2++) 
....................          if (*sc1 == *sc2) 
....................             return(sc1 - s1); 
....................    return(sc1 - s1); 
.................... } 
.................... /* standard template: 
....................    char *strpbrk(const char *s1, const char *s2). 
....................    Locates first occurence of any character from s2 in s1; 
....................    returns s1 if s2 is empty string */ 
....................  
.................... char *strpbrk(char *s1, char *s2) 
.................... { 
....................    char *sc1, *sc2; 
....................  
....................    for (sc1 = s1; *sc1 != 0; sc1++) 
....................       for (sc2 = s2; *sc2 != 0; sc2++) 
....................          if (*sc1 == *sc2) 
....................             return(sc1); 
....................    return(0); 
.................... } 
....................  
....................  
.................... /* standard template: char *strrchr(const char *s, int c). 
....................    Finds last occurrence of c in s */ 
....................  
.................... char *strrchr(char *s, unsigned int8 c) 
.................... { 
....................    char *p; 
....................  
....................    for (p = 0; ; s++) 
....................    { 
....................       if (*s == c) 
....................          p = s; 
....................       if (*s == '\0') 
....................          return(p); 
....................    } 
.................... } 
.................... /* computes length of max initial segment of s1 consisting 
....................    entirely of characters from s2 */ 
....................  
.................... unsigned int8  strspn(char *s1, char *s2) 
.................... { 
....................    char *sc1, *sc2; 
....................  
....................    for (sc1 = s1; *sc1 != 0; sc1++) 
....................       for (sc2 = s2; ; sc2++) 
....................     if (*sc2 == '\0') 
....................        return(sc1 - s1); 
....................          else if (*sc1 == *sc2) 
....................             break; 
....................    return(sc1 - s1); 
.................... } 
.................... /* standard template: 
....................    char *strstr(const char *s1, const char *s2); 
....................    Locates first occurence of character sequence s2 in s1; 
....................    returns 0 if s2 is empty string 
....................  
....................    Uncomment #define FASTER_BUT_MORE_ROM at the top of the 
....................    file to use the faster algorithm */ 
.................... char *strstr(char *s1, char *s2) 
.................... { 
....................    char *s, *t; 
....................  
....................    #ifdef FASTER_BUT_MORE_ROM 
....................    if (*s2 == '\0') 
....................          return(s1); 
....................    #endif 
....................  
....................    while (*s1) 
....................    { 
....................       for(s = s1, t = s2; *t && (*s == *t); ++s, ++t); 
....................  
....................       if (*t == '\0') 
....................          return s1; 
....................       ++s1; 
....................       #ifdef FASTER_BUT_MORE_ROM 
....................          while(*s1 != '\0' && *s1 != *s2) 
....................             ++s1; 
....................       #endif 
....................    } 
....................    return 0; 
.................... } 
....................  
.................... /* standard template: char *strtok(char *s1, const char *s2). 
....................  
....................    Finds next token in s1 delimited by a character from separator 
....................    string s2 (which can be different from call to call).  First call 
....................    starts at beginning of s1 searching for first character NOT 
....................    contained in s2; returns 0 if none is found. 
....................    If one is found, it is the start of first token (return value). 
....................    Function then searches from there for a character contained in s2. 
....................    If none is found, current token extends to end of s1, and subsequent 
....................    searches for a token will return 0.  If one is found, it is 
....................    overwritten by '\0', which terminates current token.  Function saves 
....................    pointer to following character from which next search will start. 
....................    Each subsequent call, with 0 as first argument, starts searching 
....................    from saved pointer */ 
....................  
.................... char *strtok(char *s1, char *s2) 
.................... { 
....................    char *beg, *end; 
....................    static char *save; 
....................  
....................    beg = (s1)? s1: save; 
....................    beg += strspn(beg, s2); 
....................    if (*beg == '\0') 
....................    { 
....................       *save = ' '; 
....................       return(0); 
....................    } 
....................    end = strpbrk(beg, s2); 
....................    if (*end != '\0') 
....................    { 
....................       *end = '\0'; 
....................       end++; 
....................    } 
....................    save = end; 
....................    return(beg); 
.................... } 
....................  
.................... /*****************************************************************/ 
.................... /*Miscellaneous functions*/ 
.................... /* standard template 
.................... maps error number in errnum to an error message string 
.................... Returns: Pointer to string 
.................... */ 
.................... #ifdef _ERRNO 
.................... char * strerror(unsigned int8 errnum) 
.................... { 
.................... char s[15]; 
.................... switch( errnum) 
.................... { 
.................... case 0: 
....................    strcpy(s,"no errors"); 
....................    return s; 
.................... case EDOM : 
....................    strcpy(s,"domain error"); 
....................    return s; 
.................... case ERANGE: 
....................    strcpy(s,"range error"); 
....................    return s; 
.................... } 
.................... } 
.................... #ENDIF 
.................... /* standard template: size_t strlen(const char *s). 
....................    Computes length of s1 (preceding terminating 0) */ 
....................  
.................... unsigned int8 strlen(char *s) 
.................... { 
....................    char *sc; 
....................  
....................    for (sc = s; *sc != 0; sc++); 
....................    return(sc - s); 
.................... } 
....................  
.................... /* standard template: size_t stricmp(const char *s1, const char *s2). 
....................    Compares s1 to s2 ignoring case (upper vs. lower) */ 
....................  
.................... signed int8 stricmp(char *s1, char *s2) 
.................... { 
....................  for(; *s1==*s2||(isalpha(*s1)&&isalpha(*s2)&&(*s1==*s2+32||*s2==*s1+32)); 
....................     s1++, s2++) 
....................     if (*s1 == '\0') 
....................        return(0); 
....................  return((*s1 < *s2) ? -1: 1); 
.................... } 
....................  
....................  
.................... /* standard template: char *strlwr(char *s). 
....................    Replaces uppercase letters by lowercase; 
....................    returns pointer to new string s */ 
....................  
.................... char *strlwr(char *s) 
.................... { 
....................    char *p; 
....................  
....................    for (p = s; *p != '\0'; p++) 
....................       if (*p >= 'A' && *p <='Z') 
....................          *p += 'a' - 'A'; 
....................    return(s); 
.................... } 
....................  
....................  
.................... /************************************************************/ 
....................  
....................  
.................... #endif 
....................  
.................... #ifndef getc 
.................... #define getc getch 
.................... #define getchar getch 
.................... #define puts(s) {printf(s); putchar(13); putchar(10);} 
.................... #define putc putchar 
.................... #endif 
.................... /* maps error number to an error message. Writes a sequence of characters to 
.................... stderr stream thus: if s is not null then string pointed to by s follwed by 
.................... a colon (:) and a space and the appropriate error message returned by strerror 
.................... function with argument errno 
....................  
.................... Returns: no value 
.................... */ 
....................  
.................... #ifdef _ERRNO 
.................... void perror(char *s) 
.................... { 
....................   if(s) 
....................   fprintf(STDERR,"%s: ",s); 
....................   fprintf(STDERR,"%s\r\n",strerror(errno)); 
.................... } 
.................... #endif 
.................... #endif 
....................  
.................... #include <stdlib.h> 
.................... /////////////////////////////////////////////////////////////////////////// 
.................... ////        (C) Copyright 1996,2007 Custom Computer Services           //// 
.................... //// This source code may only be used by licensed users of the CCS C  //// 
.................... //// compiler.  This source code may only be distributed to other      //// 
.................... //// licensed users of the CCS C compiler.  No other use, reproduction //// 
.................... //// or distribution is permitted without written permission.          //// 
.................... //// Derivative programs created using this software in object code    //// 
.................... //// form are not restricted in any way.                               //// 
.................... /////////////////////////////////////////////////////////////////////////// 
....................  
.................... #ifndef _STDLIB 
.................... #define _STDLIB 
....................  
.................... //--------------------------------------------------------------------------- 
.................... // Definitions and types 
.................... //--------------------------------------------------------------------------- 
....................  
.................... #ifndef RAND_MAX 
.................... #define RAND_MAX  32767    // The value of which is the maximum value 
....................                            // ... returned by the rand function 
.................... #endif 
....................  
....................  
.................... #IF (sizeof(int16*)>1) 
.................... #DEFINE LONG_POINTERS 1 
.................... #ELSE  
.................... #DEFINE LONG_POINTERS 0 
.................... #ENDIF 
....................  
.................... typedef struct { 
....................    signed int quot; 
....................    signed int rem; 
.................... } div_t; 
....................  
.................... typedef struct { 
....................    signed long quot; 
....................    signed long rem; 
.................... } ldiv_t; 
....................  
.................... #include <stddef.h> 
.................... /////////////////////////////////////////////////////////////////////////// 
.................... ////        (C) Copyright 1996,2003 Custom Computer Services           //// 
.................... //// This source code may only be used by licensed users of the CCS C  //// 
.................... //// compiler.  This source code may only be distributed to other      //// 
.................... //// licensed users of the CCS C compiler.  No other use, reproduction //// 
.................... //// or distribution is permitted without written permission.          //// 
.................... //// Derivative programs created using this software in object code    //// 
.................... //// form are not restricted in any way.                               //// 
.................... /////////////////////////////////////////////////////////////////////////// 
....................  
.................... #ifndef _STDDEF 
....................  
.................... #define _STDDEF 
....................  
.................... #if sizeof(unsigned int8 *)==1 
.................... #define ptrdiff_t unsigned int8 
.................... #else 
.................... #define ptrdiff_t unsigned int16 
.................... #endif 
....................  
.................... #define size_t unsigned int8 
.................... #define wchar_t char 
.................... #define NULL 0 
....................  
.................... #define offsetof(s,f) (offsetofbit(s,f)/8) 
....................  
.................... #endif 
....................  
....................  
.................... //--------------------------------------------------------------------------- 
.................... // String conversion functions 
.................... //--------------------------------------------------------------------------- 
....................  
.................... /* Standard template: signed int  atoi(char * s) 
....................  * converts the initial portion of the string s to a signed int 
....................  * returns the converted value if any, 0 otherwise 
....................  */ 
.................... signed int atoi(char *s); 
....................  
.................... /* Syntax: signed int32  atoi32(char * s) 
....................    converts the initial portion of the string s to a signed int32 
....................    returns the converted value if any, 0 otherwise*/ 
.................... #if (sizeof(long)==4) 
....................  #define atoi32(s) atol(s) 
.................... #else  
....................  signed int32 atoi32(char *s); 
.................... #endif 
....................  
.................... #if defined(__PCD__) 
.................... // The following functions only work on the 24 bit compiler 
.................... // for the 30F, 33F, 24F and 24H parts 
.................... /* Syntax: signed int48  atoi48(char * s) 
....................    converts the initial portion of the string s to a signed int48 
....................    returns the converted value if any, 0 otherwise*/ 
....................     
.................... signed int48 atoi48(char *s); 
....................  
.................... /* Syntax: signed int64  atoi64(char * s) 
....................    converts the initial portion of the string s to a signed int64 
....................    returns the converted value if any, 0 otherwise*/ 
.................... signed int64 atoi64(char *s); 
.................... #endif 
....................  
.................... /* Syntax: char *  itoa(signed int32 num, int8 base, char * s) 
....................    converts the signed int32 to a string and 
....................    returns the converted value if any, 0 otherwise*/ 
.................... char * itoa(signed int32 num, unsigned int base, char * s); 
....................  
.................... /* Standard template: signed int16  atol(char * s) 
....................  * converts the initial portion of the string s to a signed int16 
....................  * returns the converted value if any, 0 otherwise 
....................  */ 
.................... signed long atol(char *s); 
....................  
.................... /* Standard template: int16 strtoul(char * s,char *endptr,signed int base) 
....................  * converts the initial portion of the string s, represented as an 
....................  * integral value of radix base  to a signed long. 
....................  * Returns the converted value if any, 0 otherwise 
....................  * the final string is returned in the endptr, if endptr is not null 
....................  */ 
.................... signed long strtol(char *s,char *endptr, signed int base); 
....................  
.................... /* Standard template: int16 strtoul(char * s,char *endptr,signed int base) 
....................  * converts the initial portion of the string s, represented as an 
....................  * integral value of radix base to a unsigned long. 
....................  * returns the converted value if any, 0 otherwise 
....................  * the final string is returned in the endptr, if endptr is not null 
....................  */ 
.................... unsigned long strtoul(char *s,char *endptr, signed int base); 
....................  
.................... /* Standart template: float strtof(char * s,char *endptr) 
....................                       float48 strtof48(char *s,char *endptr); 
....................                       float64 strtod(char *s,char *endptr); 
....................  * converts the initial portion of the string s to a float32, float48 or float64, 
....................  * returns the converted value if any, 0 otherwise 
....................  * the final string is returned in the endptr, if endptr is not null                    
.................... */ 
.................... float strtof(char *s,char *endptr); 
.................... #if defined(__PCD__) 
.................... float48 strtof48(char *s,char *endptr); 
.................... float64 strtod(char *s,char *endptr); 
.................... #else 
.................... //provided for compatibility 
.................... #define strtof48(s, e) strtof(s, e) 
.................... #define strtod(s, e) strtof(s, e) 
.................... #endif 
....................  
.................... /* Standard template: float32 atof(char * s) 
....................  * converts the initial portion of the string s to a float. 
....................  * returns the converted value if any, 0 otherwise 
....................  */ 
.................... #define atof(s)   strtof(s, 0) 
....................  
.................... #if defined(__PCD__) 
.................... // The following functions only work on the 24 bit compiler 
.................... // for the 30F, 33F, 24F and 24H parts 
....................  
.................... /* Standard template: float48 atof48(char * s) 
....................  * converts the initial portion of the string s to a float. 
....................  * returns the converted value if any, 0 otherwise 
....................  */ 
.................... #define atof48(s) strtof48(s, 0) 
....................  
.................... /* Standard template: float64 atof64(char * s) 
....................  * converts the initial portion of the string s to a float. 
....................  * returns the converted value if any, 0 otherwise 
....................  */ 
.................... #define atof64(s) strtod(s, 0) 
.................... #endif 
....................  
.................... /* Standard template: float32 atoe(char * s) 
....................  * converts the initial portion of the string s to a float. 
....................  * returns the converted value if any, 0 otherwise 
....................  * also handles E format numbers 
....................  */ 
.................... #if !defined(__PCD__) 
.................... float atoe(char * s); 
.................... #endif 
....................  
.................... #if defined(__PCD__) 
.................... float32 atoe(char * s); 
.................... #endif 
....................  
.................... //--------------------------------------------------------------------------- 
.................... // Pseudo-random sequence generation functions 
.................... //--------------------------------------------------------------------------- 
....................  
.................... /* The rand function computes a sequence of pseudo-random integers in 
....................  * the range 0 to RAND_MAX 
....................  * 
....................  * Parameters: 
....................  *       (none) 
....................  * 
....................  * Returns: 
....................  *       The pseudo-random integer 
....................  */ 
.................... unsigned int16 rand(void); 
....................  
.................... /* The srand function uses the argument as a seed for a new sequence of 
....................  * pseudo-random numbers to be returned by subsequent calls to rand. 
....................  * 
....................  * Parameters: 
....................  *       [in] seed: The seed value to start from. You might need to pass 
....................  * 
....................  * Returns: 
....................  *       (none) 
....................  * 
....................  * Remarks 
....................  *          The srand function sets the starting point for generating 
....................  *       a series of pseudorandom integers. To reinitialize the 
....................  *       generator, use 1 as the seed argument. Any other value for 
....................  *       seed sets the generator to a random starting point. rand 
....................  *       retrieves the pseudorandom numbers that are generated. 
....................  *       Calling rand before any call to srand generates the same 
....................  *       sequence as calling srand with seed passed as 1. 
....................  *          Usually, you need to pass a time here from outer source 
....................  *       so that the numbers will be different every time you run. 
....................  */ 
.................... void srand(unsigned int32 seed); 
....................  
.................... //--------------------------------------------------------------------------- 
.................... // Memory management functions 
.................... //--------------------------------------------------------------------------- 
....................  
.................... // Comming soon 
....................  
.................... //--------------------------------------------------------------------------- 
.................... // Communication with the environment 
.................... //--------------------------------------------------------------------------- 
....................  
.................... /* The function returns 0 always 
....................  */ 
.................... signed int8 system(char *string); 
....................  
.................... //--------------------------------------------------------------------------- 
.................... // Searching and sorting utilities 
.................... //--------------------------------------------------------------------------- 
....................  
.................... /* Performs a binary search of a sorted array.. 
....................  * 
....................  * Parameters: 
....................  *       [in] key: Object to search for 
....................  *       [in] base: Pointer to base of search data 
....................  *       [in] num: Number of elements 
....................  *       [in] width: Width of elements 
....................  *       [in] compare: Function that compares two elements 
....................  * 
....................  * Returns: 
....................  *       bsearch returns a pointer to an occurrence of key in the array pointed 
....................  *       to by base. If key is not found, the function returns NULL. If the 
....................  *       array is not in order or contains duplicate records with identical keys, 
....................  *       the result is unpredictable. 
....................  */ 
.................... //void *bsearch(const void *key, const void *base, size_t num, size_t width, 
.................... //              int (*compare)(const void *, const void *)); 
....................  
.................... /* Performs the shell-metzner sort (not the quick sort algorithm). The contents 
....................  * of the array are sorted into ascending order according to a comparison 
....................  * function pointed to by compar. 
....................  * 
....................  * Parameters: 
....................  *       [in] base: Pointer to base of search data 
....................  *       [in] num: Number of elements 
....................  *       [in] width: Width of elements 
....................  *       [in] compare: Function that compares two elements 
....................  * 
....................  * Returns: 
....................  *       (none) 
....................  */ 
.................... //void *qsort(const void *base, size_t num, size_t width, 
.................... //              int (*compare)(const void *, const void *)); 
....................  
.................... //--------------------------------------------------------------------------- 
.................... // Integer arithmetic functions 
.................... //--------------------------------------------------------------------------- 
....................  
.................... #define labs abs 
....................  
.................... div_t div(signed int numer, signed int denom); 
.................... ldiv_t ldiv(signed long numer, signed long denom); 
....................  
.................... //--------------------------------------------------------------------------- 
.................... // Multibyte character functions 
.................... //--------------------------------------------------------------------------- 
....................  
.................... // Not supported 
....................  
.................... //--------------------------------------------------------------------------- 
.................... // Multibyte string functions 
.................... //--------------------------------------------------------------------------- 
....................  
.................... // Not supported 
....................  
....................  
.................... //--------------------------------------------------------------------------- 
.................... // Internal implementation 
.................... //--------------------------------------------------------------------------- 
....................  
.................... #include <stddef.h> 
.................... /////////////////////////////////////////////////////////////////////////// 
.................... ////        (C) Copyright 1996,2003 Custom Computer Services           //// 
.................... //// This source code may only be used by licensed users of the CCS C  //// 
.................... //// compiler.  This source code may only be distributed to other      //// 
.................... //// licensed users of the CCS C compiler.  No other use, reproduction //// 
.................... //// or distribution is permitted without written permission.          //// 
.................... //// Derivative programs created using this software in object code    //// 
.................... //// form are not restricted in any way.                               //// 
.................... /////////////////////////////////////////////////////////////////////////// 
....................  
.................... #ifndef _STDDEF 
....................  
.................... #define _STDDEF 
....................  
.................... #if sizeof(unsigned int8 *)==1 
.................... #define ptrdiff_t unsigned int8 
.................... #else 
.................... #define ptrdiff_t unsigned int16 
.................... #endif 
....................  
.................... #define size_t unsigned int8 
.................... #define wchar_t char 
.................... #define NULL 0 
....................  
.................... #define offsetof(s,f) (offsetofbit(s,f)/8) 
....................  
.................... #endif 
....................  
.................... #include <string.h> 
.................... //////////////////////////////////////////////////////////////////////////// 
.................... ////        (C) Copyright 1996,2008 Custom Computer Services            //// 
.................... //// This source code may only be used by licensed users of the CCS C   //// 
.................... //// compiler.  This source code may only be distributed to other       //// 
.................... //// licensed users of the CCS C compiler.  No other use, reproduction  //// 
.................... //// or distribution is permitted without written permission.           //// 
.................... //// Derivative programs created using this software in object code     //// 
.................... //// form are not restricted in any way.                                //// 
.................... //////////////////////////////////////////////////////////////////////////// 
....................  
.................... #ifndef _STRING 
.................... #define _STRING 
.................... #include <stddef.h> 
.................... #include <ctype.h> 
....................  
....................  
....................  
.................... ////////////////////////////////////////////// 
.................... //// Uncomment the following define to    //// 
.................... //// allow some functions to use a        //// 
.................... //// quicker algorithm, but use more ROM  //// 
.................... ////                                      //// 
.................... //// #define FASTER_BUT_MORE_ROM          //// 
.................... ////////////////////////////////////////////// 
....................  
....................  
....................  
.................... /*Copying functions*/ 
.................... /* standard template: 
....................    void *memmove(void *s1, void *s2, size_t n). 
....................    Copies max of n characters safely (not following ending '\0') 
....................    from s2 in s1; if s2 has less than n characters, appends 0 */ 
....................  
.................... char *memmove(void *s1,char *s2,size_t n) 
.................... { 
....................    char *sc1; 
....................    char *sc2; 
....................    sc1=s1; 
....................    sc2=s2; 
....................    if(sc2<sc1 && sc1 <sc2 +n) 
....................       for(sc1+=n,sc2+=n;0<n;--n) 
....................          *--sc1=*--sc2; 
....................    else 
....................       for(;0<n;--n) 
....................          *sc1++=*sc2++; 
....................   return s1; 
....................   } 
....................  
.................... /* Standard template: char *strcpy(char *s1, const char *s2) 
....................    copies the string s2 including the null character to s1. 
....................    This is a compiler built in to handle the different address 
....................    spaces */ 
....................  
.................... #define strcopy strcpy 
....................  
.................... /* standard template: 
....................    char *strncpy(char *s1, const char *s2, size_t n). 
....................    Copies max of n characters (not following ending '\0') 
....................    from s2 in s1; if s2 has less than n characters, appends 0 */ 
....................  
.................... char *strncpy(char *s1, char *s2, size_t n) 
.................... { 
....................   char *s; 
....................  
....................   for (s = s1; n > 0 && *s2 != '\0'; n--) 
....................      *s++ = *s2++; 
....................   for (; n > 0; n--) 
....................      *s++ = '\0'; 
....................  
....................   return(s1); 
.................... } 
.................... /***********************************************************/ 
....................  
.................... /*concatenation functions*/ 
.................... /* standard template: char *strcat(char *s1, const char *s2) 
.................... appends s2 to s1*/ 
....................  
.................... char *strcat(char *s1, char *s2) 
.................... { 
....................    char *s; 
....................  
....................    for (s = s1; *s != '\0'; ++s); 
....................    while(*s2 != '\0') 
....................    { 
....................       *s = *s2; 
....................       ++s; 
....................       ++s2; 
....................    } 
....................  
....................    *s = '\0'; 
....................    return(s1); 
.................... } 
.................... /* standard template: char *strncat(char *s1, char *s2,size_t n) 
.................... appends not more than n characters from s2 to s1*/ 
....................  
.................... char *strncat(char *s1, char *s2, size_t n) 
.................... { 
....................    char *s; 
....................  
....................    for (s = s1; *s != '\0'; ++s); 
....................    while(*s2 != '\0' && 0<n) 
....................    { 
....................       *s = *s2; 
....................       ++s; 
....................       ++s2; 
....................       --n; 
....................    } 
....................  
....................    *s = '\0'; 
....................    return(s1); 
.................... } 
....................  
.................... /***********************************************************/ 
....................  
....................  
.................... /*comparison functions*/ 
.................... /* standard template: signed int memcmp(void *s1, void *s2). 
....................    Compares s1 & s2; returns -1 if s1<s2, 0 if s1=s2, 1 if s1>s2 */ 
....................  
.................... signed int8 memcmp(void * s1,char *s2,size_t n) 
.................... { 
.................... char *su1, *su2; 
.................... for(su1=s1, su2=s2; 0<n; ++su1, ++su2, --n) 
.................... { 
....................    if(*su1!=*su2) 
....................       return ((*su1<*su2)?-1:+1); 
.................... } 
.................... return 0; 
.................... } 
....................  
.................... /* standard template: int strcmp(const char *s1, const char *s2). 
....................    Compares s1 & s2; returns -1 if s1<s2, 0 if s1=s2, 1 if s1>s2 */ 
....................  
.................... signed int8 strcmp(char *s1, char *s2) 
.................... { 
....................    for (; *s1 == *s2; s1++, s2++) 
....................       if (*s1 == '\0') 
....................          return(0); 
....................    return((*s1 < *s2) ? -1: 1); 
.................... } 
.................... /* standard template: int strcoll(const char *s1, const char *s2). 
....................    Compares s1 & s2; returns -1 if s1<s2, 0 if s1=s2, 1 if s1>s2 */ 
....................  
.................... signed int8 strcoll(char *s1, char *s2) 
.................... { 
....................    for (; *s1 == *s2; s1++, s2++) 
....................       if (*s1 == '\0') 
....................          return(0); 
....................    return((*s1 < *s2) ? -1: 1); 
.................... } 
....................  
.................... /* standard template: 
....................    int strncmp(const char *s1, const char *s2, size_t n). 
....................    Compares max of n characters (not following 0) from s1 to s2; 
....................    returns same as strcmp */ 
....................  
.................... signed int8 strncmp(char *s1, char *s2, size_t n) 
.................... { 
....................    for (; n > 0; s1++, s2++, n--) 
....................       if (*s1 != *s2) 
....................          return((*s1 <*s2) ? -1: 1); 
....................       else if (*s1 == '\0') 
....................          return(0); 
....................    return(0); 
.................... } 
.................... /* standard template: 
....................    int strxfrm(const char *s1, const char *s2, size_t n). 
....................    transforms maximum of n characters from s2 and places them into s1*/ 
.................... size_t strxfrm(char *s1, char *s2, size_t n) 
.................... { 
....................   char *s; 
....................   unsigned int8 n1; 
....................   n1=n; 
....................   for (s = s1; n > 0 && *s2 != '\0'; n--) 
....................      *s++ = *s2++; 
....................   for (; n > 0; n--) 
....................      *s++ = '\0'; 
....................  
....................   return(n1); 
.................... } 
....................  
....................  
....................  
....................  
....................  
.................... /***********************************************************/ 
.................... /*Search functions*/ 
.................... /* standard template: void *memchr(const char *s, int c). 
....................    Finds first occurrence of c in n characters of s */ 
....................  
.................... char *memchr(void *s,unsigned int8 c,size_t n) 
.................... { 
....................    char uc; 
....................    char *su; 
....................    uc=c; 
....................    for(su=s;0<n;++su,--n) 
....................       if(*su==uc) 
....................       return su; 
....................    return NULL; 
.................... } 
....................  
.................... /* standard template: char *strchr(const char *s, int c). 
....................    Finds first occurrence of c in s */ 
....................  
.................... char *strchr(char *s, unsigned int8 c) 
.................... { 
....................    for (; *s != c; s++) 
....................       if (*s == '\0') 
....................          return(0); 
....................    return(s); 
.................... } 
.................... /* standard template: 
....................    size_t strcspn(const char *s1, const char *s2). 
....................    Computes length of max initial segment of s1 that 
....................    consists entirely of characters NOT from s2*/ 
....................  
.................... unsigned int8  strcspn(char *s1, char *s2) 
.................... { 
....................    char *sc1, *sc2; 
....................  
....................    for (sc1 = s1; *sc1 != 0; sc1++) 
....................       for (sc2 = s2; *sc2 != 0; sc2++) 
....................          if (*sc1 == *sc2) 
....................             return(sc1 - s1); 
....................    return(sc1 - s1); 
.................... } 
.................... /* standard template: 
....................    char *strpbrk(const char *s1, const char *s2). 
....................    Locates first occurence of any character from s2 in s1; 
....................    returns s1 if s2 is empty string */ 
....................  
.................... char *strpbrk(char *s1, char *s2) 
.................... { 
....................    char *sc1, *sc2; 
....................  
....................    for (sc1 = s1; *sc1 != 0; sc1++) 
....................       for (sc2 = s2; *sc2 != 0; sc2++) 
....................          if (*sc1 == *sc2) 
....................             return(sc1); 
....................    return(0); 
.................... } 
....................  
....................  
.................... /* standard template: char *strrchr(const char *s, int c). 
....................    Finds last occurrence of c in s */ 
....................  
.................... char *strrchr(char *s, unsigned int8 c) 
.................... { 
....................    char *p; 
....................  
....................    for (p = 0; ; s++) 
....................    { 
....................       if (*s == c) 
....................          p = s; 
....................       if (*s == '\0') 
....................          return(p); 
....................    } 
.................... } 
.................... /* computes length of max initial segment of s1 consisting 
....................    entirely of characters from s2 */ 
....................  
.................... unsigned int8  strspn(char *s1, char *s2) 
.................... { 
....................    char *sc1, *sc2; 
....................  
....................    for (sc1 = s1; *sc1 != 0; sc1++) 
....................       for (sc2 = s2; ; sc2++) 
....................     if (*sc2 == '\0') 
....................        return(sc1 - s1); 
....................          else if (*sc1 == *sc2) 
....................             break; 
....................    return(sc1 - s1); 
.................... } 
.................... /* standard template: 
....................    char *strstr(const char *s1, const char *s2); 
....................    Locates first occurence of character sequence s2 in s1; 
....................    returns 0 if s2 is empty string 
....................  
....................    Uncomment #define FASTER_BUT_MORE_ROM at the top of the 
....................    file to use the faster algorithm */ 
.................... char *strstr(char *s1, char *s2) 
.................... { 
....................    char *s, *t; 
....................  
....................    #ifdef FASTER_BUT_MORE_ROM 
....................    if (*s2 == '\0') 
....................          return(s1); 
....................    #endif 
....................  
....................    while (*s1) 
....................    { 
....................       for(s = s1, t = s2; *t && (*s == *t); ++s, ++t); 
....................  
....................       if (*t == '\0') 
....................          return s1; 
....................       ++s1; 
....................       #ifdef FASTER_BUT_MORE_ROM 
....................          while(*s1 != '\0' && *s1 != *s2) 
....................             ++s1; 
....................       #endif 
....................    } 
....................    return 0; 
.................... } 
....................  
.................... /* standard template: char *strtok(char *s1, const char *s2). 
....................  
....................    Finds next token in s1 delimited by a character from separator 
....................    string s2 (which can be different from call to call).  First call 
....................    starts at beginning of s1 searching for first character NOT 
....................    contained in s2; returns 0 if none is found. 
....................    If one is found, it is the start of first token (return value). 
....................    Function then searches from there for a character contained in s2. 
....................    If none is found, current token extends to end of s1, and subsequent 
....................    searches for a token will return 0.  If one is found, it is 
....................    overwritten by '\0', which terminates current token.  Function saves 
....................    pointer to following character from which next search will start. 
....................    Each subsequent call, with 0 as first argument, starts searching 
....................    from saved pointer */ 
....................  
.................... char *strtok(char *s1, char *s2) 
.................... { 
....................    char *beg, *end; 
....................    static char *save; 
....................  
....................    beg = (s1)? s1: save; 
....................    beg += strspn(beg, s2); 
....................    if (*beg == '\0') 
....................    { 
....................       *save = ' '; 
....................       return(0); 
....................    } 
....................    end = strpbrk(beg, s2); 
....................    if (*end != '\0') 
....................    { 
....................       *end = '\0'; 
....................       end++; 
....................    } 
....................    save = end; 
....................    return(beg); 
.................... } 
....................  
.................... /*****************************************************************/ 
.................... /*Miscellaneous functions*/ 
.................... /* standard template 
.................... maps error number in errnum to an error message string 
.................... Returns: Pointer to string 
.................... */ 
.................... #ifdef _ERRNO 
.................... char * strerror(unsigned int8 errnum) 
.................... { 
.................... char s[15]; 
.................... switch( errnum) 
.................... { 
.................... case 0: 
....................    strcpy(s,"no errors"); 
....................    return s; 
.................... case EDOM : 
....................    strcpy(s,"domain error"); 
....................    return s; 
.................... case ERANGE: 
....................    strcpy(s,"range error"); 
....................    return s; 
.................... } 
.................... } 
.................... #ENDIF 
.................... /* standard template: size_t strlen(const char *s). 
....................    Computes length of s1 (preceding terminating 0) */ 
....................  
.................... unsigned int8 strlen(char *s) 
.................... { 
....................    char *sc; 
....................  
....................    for (sc = s; *sc != 0; sc++); 
....................    return(sc - s); 
.................... } 
....................  
.................... /* standard template: size_t stricmp(const char *s1, const char *s2). 
....................    Compares s1 to s2 ignoring case (upper vs. lower) */ 
....................  
.................... signed int8 stricmp(char *s1, char *s2) 
.................... { 
....................  for(; *s1==*s2||(isalpha(*s1)&&isalpha(*s2)&&(*s1==*s2+32||*s2==*s1+32)); 
....................     s1++, s2++) 
....................     if (*s1 == '\0') 
....................        return(0); 
....................  return((*s1 < *s2) ? -1: 1); 
.................... } 
....................  
....................  
.................... /* standard template: char *strlwr(char *s). 
....................    Replaces uppercase letters by lowercase; 
....................    returns pointer to new string s */ 
....................  
.................... char *strlwr(char *s) 
.................... { 
....................    char *p; 
....................  
....................    for (p = s; *p != '\0'; p++) 
....................       if (*p >= 'A' && *p <='Z') 
....................          *p += 'a' - 'A'; 
....................    return(s); 
.................... } 
....................  
....................  
.................... /************************************************************/ 
....................  
....................  
.................... #endif 
....................  
....................  
.................... div_t div(signed int numer, signed int denom) 
.................... { 
....................    div_t val; 
....................    val.quot = numer / denom; 
....................    val.rem = numer - (denom * val.quot); 
....................    return (val); 
.................... } 
....................  
.................... ldiv_t ldiv(signed long numer, signed long denom) 
.................... { 
....................    ldiv_t val; 
....................  
....................    val.quot = numer / denom; 
....................    val.rem = numer - (denom * val.quot); 
....................    return (val); 
.................... } 
....................  
.................... #if defined(__PCD__) 
.................... float32 atoe(char * s) 
.................... { 
....................    float32 pow10 = 1.0; 
....................    float32 result = 0.0; 
....................    unsigned int8 sign = 0; 
....................    unsigned int8 expsign = 0; 
....................    char c; 
....................    unsigned int8 ptr = 0; 
....................    unsigned int8 i; 
....................    float32 exp = 1.0; 
....................    unsigned int8 expcnt = 0; 
....................  
....................    c = s[ptr++]; 
....................  
....................    if ((c>='0' && c<='9') || c=='+' || c=='-' || c=='.' || c=='E' || c=='e') { 
....................       if(c == '-') { 
....................          sign = 1; 
....................          c = s[ptr++]; 
....................       } 
....................       if(c == '+') 
....................          c = s[ptr++]; 
....................  
....................       while((c >= '0' && c <= '9')) { 
....................          result = 10*result + c - '0'; 
....................          c = s[ptr++]; 
....................       } 
....................  
....................       if (c == '.') { 
....................          c = s[ptr++]; 
....................          while((c >= '0' && c <= '9')) { 
....................              pow10 = pow10*10; 
....................              result += (c - '0')/pow10; 
....................              c = s[ptr++]; 
....................          } 
....................       } 
....................  
....................       // Handling the exponent 
....................       if (c=='e' || c=='E') { 
....................          c = s[ptr++]; 
....................  
....................          if(c == '-') { 
....................             expsign = 1; 
....................             c = s[ptr++]; 
....................          } 
....................          if(c == '+') 
....................             c = s[ptr++]; 
....................  
....................          while((c >= '0' && c <= '9')) { 
....................             expcnt = 10*expcnt + c - '0'; 
....................             c = s[ptr++]; 
....................          } 
....................  
....................          for(i=0;i<expcnt;i++) 
....................             exp*=10; 
....................  
....................          if(expsign==1) 
....................             result/=exp; 
....................          else 
....................             result*=exp; 
....................       } 
....................    } 
....................  
....................    if (sign == 1) 
....................       result = -1*result; 
....................    return(result); 
.................... } 
.................... #endif 
....................  
.................... #if !defined(__PCD__) 
.................... float atoe(char * s) 
.................... { 
....................    float pow10 = 1.0; 
....................    float result = 0.0; 
....................    unsigned int8 sign = 0; 
....................    unsigned int8 expsign = 0; 
....................    char c; 
....................    unsigned int8 ptr = 0; 
....................    unsigned int8 i; 
....................    float exp = 1.0; 
....................    unsigned int8 expcnt = 0; 
....................  
....................    c = s[ptr++]; 
....................  
....................    if ((c>='0' && c<='9') || c=='+' || c=='-' || c=='.' || c=='E' || c=='e') { 
....................       if(c == '-') { 
....................          sign = 1; 
....................          c = s[ptr++]; 
....................       } 
....................       if(c == '+') 
....................          c = s[ptr++]; 
....................  
....................       while((c >= '0' && c <= '9')) { 
....................          result = 10*result + c - '0'; 
....................          c = s[ptr++]; 
....................       } 
....................  
....................       if (c == '.') { 
....................          c = s[ptr++]; 
....................          while((c >= '0' && c <= '9')) { 
....................              pow10 = pow10*10; 
....................              result += (c - '0')/pow10; 
....................              c = s[ptr++]; 
....................          } 
....................       } 
....................  
....................       // Handling the exponent 
....................       if (c=='e' || c=='E') { 
....................          c = s[ptr++]; 
....................  
....................          if(c == '-') { 
....................             expsign = 1; 
....................             c = s[ptr++]; 
....................          } 
....................          if(c == '+') 
....................             c = s[ptr++]; 
....................  
....................          while((c >= '0' && c <= '9')) { 
....................             expcnt = 10*expcnt + c - '0'; 
....................             c = s[ptr++]; 
....................          } 
....................  
....................          for(i=0;i<expcnt;i++) 
....................             exp*=10; 
....................  
....................          if(expsign==1) 
....................             result/=exp; 
....................          else 
....................             result*=exp; 
....................       } 
....................    } 
....................  
....................    if (sign == 1) 
....................       result = -1*result; 
....................    return(result); 
.................... } 
.................... #endif 
....................  
.................... signed int atoi(char *s) 
.................... { 
....................    signed int result; 
....................    unsigned int sign, base, index; 
....................    char c; 
....................  
....................    index = 0; 
....................    sign = 0; 
....................    base = 10; 
....................    result = 0; 
....................  
....................    if (!s) 
....................       return 0; 
....................    // Omit all preceeding alpha characters 
....................    c = s[index++]; 
....................  
....................    // increase index if either positive or negative sign is detected 
....................    if (c == '-') 
....................    { 
....................       sign = 1;         // Set the sign to negative 
....................       c = s[index++]; 
....................    } 
....................    else if (c == '+') 
....................    { 
....................       c = s[index++]; 
....................    } 
....................  
....................    if (c >= '0' && c <= '9') 
....................    { 
....................  
....................       // Check for hexa number 
....................       if (c == '0' && (s[index] == 'x' || s[index] == 'X')) 
....................       { 
....................          base = 16; 
....................          index++; 
....................          c = s[index++]; 
....................       } 
....................  
....................       // The number is a decimal number 
....................       if (base == 10) 
....................       { 
....................          while (c >= '0' && c <= '9') 
....................          { 
....................             result = 10*result + (c - '0'); 
....................             c = s[index++]; 
....................          } 
....................       } 
....................       else if (base == 16)    // The number is a hexa number 
....................       { 
....................          c = toupper(c); 
....................          while ( (c >= '0' && c <= '9') || (c >= 'A' && c<='F')) 
....................          { 
....................             if (c >= '0' && c <= '9') 
....................                result = (result << 4) + (c - '0'); 
....................             else 
....................                result = (result << 4) + (c - 'A' + 10); 
....................  
....................             c = s[index++]; 
....................             c = toupper(c); 
....................          } 
....................       } 
....................    } 
....................  
....................    if (sign == 1 && base == 10) 
....................        result = -result; 
....................  
....................    return(result); 
.................... } 
....................  
.................... signed long atol(char *s) 
.................... { 
....................    signed long result; 
....................    unsigned int sign, base, index; 
....................    char c; 
....................  
....................    index = 0; 
....................    sign = 0; 
....................    base = 10; 
....................    result = 0; 
....................  
....................    if (!s) 
....................       return 0; 
....................    c = s[index++]; 
....................  
....................    // increase index if either positive or negative sign is detected 
....................    if (c == '-') 
....................    { 
....................       sign = 1;         // Set the sign to negative 
....................       c = s[index++]; 
....................    } 
....................    else if (c == '+') 
....................    { 
....................       c = s[index++]; 
....................    } 
....................  
....................    if (c >= '0' && c <= '9') 
....................    { 
....................       if (c == '0' && (s[index] == 'x' || s[index] == 'X')) 
....................       { 
....................          base = 16; 
....................          index++; 
....................          c = s[index++]; 
....................       } 
....................  
....................       // The number is a decimal number 
....................       if (base == 10) 
....................       { 
....................          while (c >= '0' && c <= '9') 
....................          { 
....................             result = 10*result + (c - '0'); 
....................             c = s[index++]; 
....................          } 
....................       } 
....................       else if (base == 16)    // The number is a hexa number 
....................       { 
....................          c = toupper(c); 
....................          while ( (c >= '0' && c <= '9') || (c >= 'A' && c <='F')) 
....................          { 
....................             if (c >= '0' && c <= '9') 
....................                result = (result << 4) + (c - '0'); 
....................             else 
....................                result = (result << 4) + (c - 'A' + 10); 
....................  
....................             c = s[index++];c = toupper(c); 
....................          } 
....................       } 
....................    } 
....................  
....................    if (base == 10 && sign == 1) 
....................       result = -result; 
....................  
....................    return(result); 
.................... } 
....................  
.................... /* A fast routine to multiply by 10 
....................  */ 
.................... signed int32 mult_with10(int32 num) 
.................... { 
....................    return ( (num << 1) + (num << 3) ); 
.................... } 
....................  
.................... #if sizeof(long)==2 
.................... signed int32 atoi32(char *s) 
.................... { 
....................    signed int32 result; 
....................    int8 sign, base, index; 
....................    char c; 
....................  
....................    index = 0; 
....................    sign = 0; 
....................    base = 10; 
....................    result = 0; 
....................  
....................    if (!s) 
....................       return 0; 
....................    c = s[index++]; 
....................  
....................    // increase index if either positive or negative sign is detected 
....................    if (c == '-') 
....................    { 
....................       sign = 1;         // Set the sign to negative 
....................       c = s[index++]; 
....................    } 
....................    else if (c == '+') 
....................    { 
....................       c = s[index++]; 
....................    } 
....................  
....................    if (c >= '0' && c <= '9') 
....................    { 
....................       if (c == '0' && (s[index] == 'x' || s[index] == 'X')) 
....................       { 
....................          base = 16; 
....................          index++; 
....................          c = s[index++]; 
....................       } 
....................  
....................       // The number is a decimal number 
....................       if (base == 10) 
....................       { 
....................          while (c >= '0' && c <= '9') { 
....................             result = (result << 1) + (result << 3);  // result *= 10; 
....................             result += (c - '0'); 
....................             c = s[index++]; 
....................          } 
....................       } 
....................       else if (base == 16)    // The number is a hexa number 
....................       { 
....................          c = toupper(c); 
....................          while ((c >= '0' && c <= '9') || (c >= 'A' && c <='F')) 
....................          { 
....................             if (c >= '0' && c <= '9') 
....................                result = (result << 4) + (c - '0'); 
....................             else 
....................                result = (result << 4) + (c - 'A' + 10); 
....................  
....................             c = s[index++];c = toupper(c); 
....................          } 
....................       } 
....................    } 
....................  
....................    if (base == 10 && sign == 1) 
....................       result = -result; 
....................  
....................    return(result); 
.................... } 
.................... #endif 
....................  
.................... #if defined(__PCD__) 
....................  
.................... signed int48 atoi48(char *s) 
.................... { 
....................    signed int48 result; 
....................    int8 sign, base, index; 
....................    char c; 
....................  
....................    index = 0; 
....................    sign = 0; 
....................    base = 10; 
....................    result = 0; 
....................  
....................    if (!s) 
....................       return 0; 
....................    c = s[index++]; 
....................  
....................    // increase index if either positive or negative sign is detected 
....................    if (c == '-') 
....................    { 
....................       sign = 1;         // Set the sign to negative 
....................       c = s[index++]; 
....................    } 
....................    else if (c == '+') 
....................    { 
....................       c = s[index++]; 
....................    } 
....................  
....................    if (c >= '0' && c <= '9') 
....................    { 
....................       if (c == '0' && (s[index] == 'x' || s[index] == 'X')) 
....................       { 
....................          base = 16; 
....................          index++; 
....................          c = s[index++]; 
....................       } 
....................  
....................       // The number is a decimal number 
....................       if (base == 10) 
....................       { 
....................          while (c >= '0' && c <= '9') { 
....................             result = (result << 1) + (result << 3);  // result *= 10; 
....................             result += (c - '0'); 
....................             c = s[index++]; 
....................          } 
....................       } 
....................       else if (base == 16)    // The number is a hexa number 
....................       { 
....................          c = toupper(c); 
....................          while ((c >= '0' && c <= '9') || (c >= 'A' && c <='F')) 
....................          { 
....................             if (c >= '0' && c <= '9') 
....................                result = (result << 4) + (c - '0'); 
....................             else 
....................                result = (result << 4) + (c - 'A' + 10); 
....................  
....................             c = s[index++];c = toupper(c); 
....................          } 
....................       } 
....................    } 
....................  
....................    if (base == 10 && sign == 1) 
....................       result = -result; 
....................  
....................    return(result); 
.................... } 
....................  
.................... signed int64 atoi64(char *s) 
.................... { 
....................    signed int64 result; 
....................    int8 sign, base, index; 
....................    char c; 
....................  
....................    index = 0; 
....................    sign = 0; 
....................    base = 10; 
....................    result = 0; 
....................  
....................    if (!s) 
....................       return 0; 
....................    c = s[index++]; 
....................  
....................    // increase index if either positive or negative sign is detected 
....................    if (c == '-') 
....................    { 
....................       sign = 1;         // Set the sign to negative 
....................       c = s[index++]; 
....................    } 
....................    else if (c == '+') 
....................    { 
....................       c = s[index++]; 
....................    } 
....................  
....................    if (c >= '0' && c <= '9') 
....................    { 
....................       if (c == '0' && (s[index] == 'x' || s[index] == 'X')) 
....................       { 
....................          base = 16; 
....................          index++; 
....................          c = s[index++]; 
....................       } 
....................  
....................       // The number is a decimal number 
....................       if (base == 10) 
....................       { 
....................          while (c >= '0' && c <= '9') { 
....................             result = (result << 1) + (result << 3);  // result *= 10; 
....................             result += (c - '0'); 
....................             c = s[index++]; 
....................          } 
....................       } 
....................       else if (base == 16)    // The number is a hexa number 
....................       { 
....................          c = toupper(c); 
....................          while ((c >= '0' && c <= '9') || (c >= 'A' && c <='F')) 
....................          { 
....................             if (c >= '0' && c <= '9') 
....................                result = (result << 4) + (c - '0'); 
....................             else 
....................                result = (result << 4) + (c - 'A' + 10); 
....................  
....................             c = s[index++];c = toupper(c); 
....................          } 
....................       } 
....................    } 
....................  
....................    if (base == 10 && sign == 1) 
....................       result = -result; 
....................  
....................    return(result); 
.................... } 
.................... #endif 
....................  
.................... char * itoa(signed int32 num, unsigned int base, char * s) 
.................... { 
....................      unsigned int32 temp=1; 
....................      unsigned int8 i,sign=0,cnt=0; 
....................      char c; 
....................  
....................      if(num<0) { 
....................          sign=1;        // Check for negative number 
....................          num*=-1; 
....................      } 
....................  
....................      while(temp>0) { 
....................          temp=(num/base); 
....................          s[cnt]=(num%base)+'0';    // Conversion 
....................  
....................          if(s[cnt]>0x39) 
....................             s[cnt]+=0x7; 
....................  
....................          cnt++; 
....................          num=temp; 
....................      } 
....................  
....................      if(sign==1) { 
....................          s[cnt]=0x2D;      // Negative sign 
....................          cnt++; 
....................      } 
....................  
....................      for(i = 0;i<(int8)(cnt/2);i++) { 
....................  
....................          c=s[i]; 
....................          s[i]=s[cnt-i-1];        // Reverse the number 
....................          s[cnt-i-1]=c; 
....................      } 
....................      s[cnt]='\0';     // End the string 
....................      return s; 
.................... } 
....................  
.................... float strtof(char *s, char *endptr) 
.................... { 
....................    float pow10 = 1.0; 
....................    float result = 0.0; 
....................    int1 skip = 1, sign = 0, point = 0; 
....................    char c; 
....................    unsigned int8 ptr = 0; 
....................  
....................    if (!s) 
....................       return 0; 
....................  
....................    for(c=s[ptr++]; c!=0; c=s[ptr++]) 
....................    { 
....................       if (skip && !isspace(c)) 
....................       { 
....................          skip = 0; 
....................          if (c == '+') 
....................          { 
....................             sign = 0; 
....................             continue; 
....................          }             
....................          else if (c == '-') 
....................          { 
....................             sign = 1; 
....................             continue; 
....................          } 
....................       } 
....................       if (!skip && (c == '.') && !point) 
....................          point = 1; 
....................       else if (!skip && isdigit(c)) 
....................       { 
....................          c -= '0'; 
....................          if (point) 
....................          { 
....................             pow10 = pow10 * 10.0; 
....................             result += (float)c / pow10;    
....................          } 
....................          else 
....................          { 
....................             result = 10.0 * result + (float)c; 
....................          } 
....................       } 
....................       else if (!skip) 
....................          break; 
....................    } 
....................  
....................    if (sign) 
....................       result = -1*result; 
....................        
....................    if(endptr) 
....................    { 
....................       if (ptr) { 
....................          ptr--; 
....................        #IF LONG_POINTERS  
....................          *((long *)endptr)= s+ptr;  
....................        #ELSE 
....................          *((char *)endptr)=s+ptr; 
....................        #ENDIF 
....................       } 
....................       else 
....................       { 
....................       #IF LONG_POINTERS 
....................       *((long *)endptr)= s;  
....................       #ELSE 
....................       *((char *)endptr)=s; 
....................       #ENDIF 
....................       } 
....................    } 
....................  
....................    return(result); 
.................... } 
....................  
.................... #if defined(__PCD__) 
.................... float48 strtof48(char *s, char *endptr) 
.................... { 
....................    float48 pow10 = 1.0; 
....................    float48 result = 0.0; 
....................    int1 skip = 1, sign = 0, point = 0; 
....................    char c; 
....................    unsigned int8 ptr = 0; 
....................  
....................    if (!s) 
....................       return 0; 
....................  
....................    for(c=s[ptr++]; c!=0; c=s[ptr++]) 
....................    { 
....................       if (skip && !isspace(c)) 
....................       { 
....................          skip = 0; 
....................          if (c == '+') 
....................          { 
....................             sign = 0; 
....................             continue; 
....................          }             
....................          else if (c == '-') 
....................          { 
....................             sign = 1; 
....................             continue; 
....................          } 
....................       } 
....................       if (!skip && (c == '.') && !point) 
....................          point = 1; 
....................       else if (!skip && isdigit(c)) 
....................       { 
....................          c -= '0'; 
....................          if (point) 
....................          { 
....................             pow10 = pow10 * 10.0; 
....................             result += (float48)c / pow10;    
....................          } 
....................          else 
....................          { 
....................             result = 10.0 * result + (float48)c; 
....................          } 
....................       } 
....................       else if (!skip) 
....................          break; 
....................    } 
....................  
....................    if (sign) 
....................       result = -1*result; 
....................        
....................    if(endptr) 
....................    { 
....................       if (ptr) { 
....................          ptr--; 
....................        #IF LONG_POINTERS  
....................          *((long *)endptr)= s+ptr;  
....................        #ELSE 
....................          *((char *)endptr)=s+ptr; 
....................        #ENDIF 
....................       } 
....................       else 
....................       { 
....................       #IF LONG_POINTERS 
....................       *((long *)endptr)= s;  
....................       #ELSE 
....................       *((char *)endptr)=s; 
....................       #ENDIF 
....................       } 
....................    } 
....................  
....................    return(result); 
.................... } 
....................  
.................... float64 strtod(char *s, char *endptr) 
.................... { 
....................    float64 pow10 = 1.0; 
....................    float64 result = 0.0; 
....................    int1 skip = 1, sign = 0, point = 0; 
....................    char c; 
....................    unsigned int8 ptr = 0; 
....................  
....................    if (!s) 
....................       return 0; 
....................  
....................    for(c=s[ptr++]; c!=0; c=s[ptr++]) 
....................    { 
....................       if (skip && !isspace(c)) 
....................       { 
....................          skip = 0; 
....................          if (c == '+') 
....................          { 
....................             sign = 0; 
....................             continue; 
....................          }             
....................          else if (c == '-') 
....................          { 
....................             sign = 1; 
....................             continue; 
....................          } 
....................       } 
....................       if (!skip && (c == '.') && !point) 
....................          point = 1; 
....................       else if (!skip && isdigit(c)) 
....................       { 
....................          c -= '0'; 
....................          if (point) 
....................          { 
....................             pow10 = pow10 * 10.0; 
....................             result += (float64)c / pow10;    
....................          } 
....................          else 
....................          { 
....................             result = 10.0 * result + (float64)c; 
....................          } 
....................       } 
....................       else if (!skip) 
....................          break; 
....................    } 
....................  
....................    if (sign) 
....................       result = -1*result; 
....................        
....................    if(endptr) 
....................    { 
....................       if (ptr) { 
....................          ptr--; 
....................        #IF LONG_POINTERS  
....................          *((long *)endptr)= s+ptr;  
....................        #ELSE 
....................          *((char *)endptr)=s+ptr; 
....................        #ENDIF 
....................       } 
....................       else 
....................       { 
....................       #IF LONG_POINTERS 
....................       *((long *)endptr)= s;  
....................       #ELSE 
....................       *((char *)endptr)=s; 
....................       #ENDIF 
....................       } 
....................    } 
....................  
....................    return(result); 
.................... } 
.................... #endif 
....................  
.................... unsigned long strtoul(char *s, char *endptr, signed int base) 
.................... { 
....................    char *sc,*s1,*sd; 
....................    unsigned long x=0; 
....................    char sign; 
....................    char digits[]="0123456789abcdefghijklmnopqstuvwxyz"; 
....................    for(sc=s;isspace(*sc);++sc); 
....................    sign=*sc=='-'||*sc=='+'?*sc++:'+'; 
....................    if(sign=='-' || base <0 || base ==1|| base >36) // invalid base 
....................    goto StrtoulGO; 
....................  
....................    else if (base) 
....................    { 
....................       if(base==16 && *sc =='0'&&(sc[1]=='x' || sc[1]=='X')) 
....................          sc+=2; 
....................       if(base==8 && *sc =='0') 
....................          sc+=1; 
....................       if(base==2 && *sc =='0'&&sc[1]=='b') 
....................          sc+=2; 
....................  
....................    } 
....................    else if(*sc!='0') // base is 0, find base 
....................       base=10; 
....................    else if (sc[1]=='x' || sc[1]=='X') 
....................       base =16,sc+=2; 
....................    else if(sc[1]=='b') 
....................       base=2,sc+=2; 
....................    else 
....................       base=8; 
....................    for (s1=sc;*sc=='0';++sc);// skip leading zeroes 
....................    sd=memchr(digits,tolower(*sc),base); 
....................    for(; sd!=0; ) 
....................    { 
....................       x=x*base+(int16)(sd-digits); 
....................       ++sc; 
....................       sd=memchr(digits,tolower(*sc),base); 
....................    } 
....................    if(s1==sc) 
....................    { 
....................    StrtoulGO: 
....................       if (endptr) 
....................       { 
....................          #IF LONG_POINTERS 
....................          *((long *)endptr)= s;  
....................          #ELSE 
....................          *((char *)endptr)=s; 
....................          #ENDIF 
....................          } 
....................    return 0; 
....................    } 
....................    if (endptr) 
....................    { 
....................          #IF LONG_POINTERS 
....................          *((long *)endptr)= sc;  
....................          #ELSE 
....................          *((char *)endptr)=sc;  
....................          #ENDIF 
....................    } 
....................    return x; 
.................... } 
....................  
....................  
.................... signed long strtol(char *s,char *endptr, signed int base) 
.................... { 
....................    char *sc,*s1,*sd; 
....................    signed long x=0; 
....................    char sign; 
....................    char digits[]="0123456789abcdefghijklmnopqstuvwxyz"; 
....................    for(sc=s;isspace(*sc);++sc); 
....................    sign=*sc=='-'||*sc=='+'?*sc++:'+'; 
....................    if (base <0 || base ==1|| base >36) // invalid base 
....................    goto StrtolGO; 
....................    else if (base) 
....................    { 
....................       if(base==16 && *sc =='0'&&(sc[1]=='x' || sc[1]=='X')) 
....................          sc+=2; 
....................       if(base==8 && *sc =='0') 
....................          sc+=1; 
....................       if(base==2 && *sc =='0'&&sc[1]=='b') 
....................          sc+=2; 
....................  
....................    } 
....................    else if(*sc!='0') // base is 0, find base 
....................       base=10; 
....................    else if (sc[1]=='x' || sc[1]=='X') 
....................       base =16,sc+=2; 
....................    else if(sc[1]=='b') 
....................       base=2,sc+=2; 
....................    else 
....................       base=8; 
....................    for (s1=sc;*sc=='0';++sc);// skip leading zeroes 
....................  
....................    sd=memchr(digits,tolower(*sc),base); 
....................    for(;sd!=0;) 
....................    { 
....................       x=x*base+(int16)(sd-digits); 
....................       ++sc; 
....................       sd=memchr(digits,tolower(*sc),base); 
....................    } 
....................    if(s1==sc) 
....................    { 
....................    StrtolGO: 
....................       if (endptr) 
....................       { 
....................          #IF LONG_POINTERS 
....................          *((long *)endptr)= s;  
....................          #ELSE 
....................          *((char *)endptr)=s; 
....................          #ENDIF 
....................       } 
....................    return 0; 
....................    } 
....................    if(sign=='-') 
....................       x  =-x; 
....................    if (endptr) 
....................    { 
....................         #IF LONG_POINTERS 
....................          *((long *)endptr)= sc;  
....................         #ELSE 
....................         *((char *)endptr)=sc; 
....................         #ENDIF 
....................    } 
....................    return x; 
.................... } 
....................  
.................... signed int8 system(char *string) 
.................... { 
....................    return 0; 
.................... } 
....................  
.................... int8 mblen(char *s,size_t n) 
.................... { 
....................    return strlen(s); 
.................... } 
....................  
.................... int8 mbtowc(wchar_t *pwc,char *s,size_t n) 
.................... { 
....................    *pwc=*s; 
....................    return 1; 
.................... } 
....................  
.................... int8 wctomb(char *s,wchar_t wchar) 
.................... { 
....................    *s=wchar; 
....................    return 1; 
.................... } 
....................  
.................... size_t mbstowcs(wchar_t *pwcs,char *s,size_t n) 
.................... { 
....................    strncpy(pwcs,s,n); 
....................    return strlen(pwcs); 
.................... } 
....................  
.................... size_t wcstombs(char *s,wchar_t *pwcs,size_t n) 
.................... { 
....................    strncpy(s,pwcs,n); 
....................    return strlen(s); 
.................... } 
....................  
.................... //--------------------------------------------------------------------------- 
.................... // The random number implementation 
.................... //--------------------------------------------------------------------------- 
....................  
.................... unsigned int32 _Randseed; 
....................  
.................... unsigned int16 rand(void) 
.................... { 
....................    _Randseed = _Randseed * 1103515245 + 12345; 
....................    return ((unsigned int16)(_Randseed >> 16) % RAND_MAX); 
.................... } 
....................  
.................... void srand(unsigned int32 seed) 
.................... { 
....................    _Randseed = seed; 
.................... } 
....................  
.................... //--------------------------------------------------------------------------- 
.................... // Searching and sorting utilities implementation 
.................... //--------------------------------------------------------------------------- 
....................  
.................... #if !defined(__PCD__) 
.................... typedef signed int8 (*_Cmpfun)(char * p1,char * p2);  
.................... #else  
.................... typedef signed int16 (*_Cmpfun)(char * p1,char * p2);  
.................... #endif 
....................  
....................  
....................  
.................... void qsort(char * qdata, unsigned int qitems, unsigned int qsize, _Cmpfun cmp) { 
....................    unsigned int m,j,i,l; 
....................    int1 done; 
....................    unsigned int8 t[16]; 
....................  
....................    m = qitems/2; 
....................    while( m > 0 ) { 
....................      for(j=0; j<(qitems-m); ++j) { 
....................         i = j; 
....................         do 
....................         { 
....................            done=1; 
....................            l = i+m; 
....................            if( (*cmp)(qdata+i*qsize, qdata+l*qsize) > 0 ) { 
....................               memcpy(t, qdata+i*qsize, qsize); 
....................               memcpy(qdata+i*qsize, qdata+l*qsize, qsize); 
....................               memcpy(qdata+l*qsize, t, qsize); 
....................               if(m <= i) 
....................                 i -= m; 
....................                 done = 0; 
....................            } 
....................         } while(!done); 
....................      } 
....................      m = m/2; 
....................    } 
.................... } 
....................  
....................  
.................... char *bsearch(char *key, char *base, size_t num, size_t width,_Cmpfun cmp) 
.................... { 
....................    char *p, *q; 
....................    size_t n; 
....................    size_t pivot; 
....................    signed int val; 
....................  
....................    p = base; 
....................    n = num; 
....................  
....................    while (n > 0) 
....................    { 
....................       pivot = n >> 1; 
....................       q = p + width * pivot; 
....................  
....................       val = (*cmp)(key, q); 
....................  
....................       if (val < 0) 
....................          n = pivot; 
....................       else if (val == 0) 
....................          return ((char *)q); 
....................       else { 
....................          p = q + width; 
....................          n -= pivot + 1; 
....................       } 
....................    } 
....................  
....................    return NULL;      // There's no match 
.................... } 
....................  
....................  
.................... #endif 
....................  
.................... #include "accelerometro.h" 
....................  
.................... #ifndef ACCELEROMETRO_H 
....................  
.................... #define ACCELEROMETRO_H 
....................  
.................... #define MMA7455_XOUTL 0x00      // Read only, Output Value X LSB 
.................... #define MMA7455_XOUTH 0x01      // Read only, Output Value X MSB 
.................... #define MMA7455_YOUTL 0x02      // Read only, Output Value Y LSB 
.................... #define MMA7455_YOUTH 0x03      // Read only, Output Value Y MSB 
.................... #define MMA7455_ZOUTL 0x04      // Read only, Output Value Z LSB 
.................... #define MMA7455_ZOUTH 0x05      // Read only, Output Value Z MSB 
.................... #define MMA7455_XOUT8 0x06      // Read only, Output Value X 8 bits 
.................... #define MMA7455_YOUT8 0x07      // Read only, Output Value Y 8 bits 
.................... #define MMA7455_ZOUT8 0x08      // Read only, Output Value Z 8 bits 
.................... #define MMA7455_STATUS 0x09     // Read only, Status Register 
.................... #define MMA7455_DETSRC 0x0A     // Read only, Detection Source Register 
.................... #define MMA7455_TOUT 0x0B       // Temperature Output Value (Optional) 
.................... #define MMA7455_RESERVED1 0x0C  // Reserved 
.................... #define MMA7455_I2CAD 0x0D      // Read/Write, I2C Device Address 
.................... #define MMA7455_USRINF 0x0E     // Read only, User Information (Optional) 
.................... #define MMA7455_WHOAMI 0x0F     // Read only, "Who am I" value (Optional) 
.................... #define MMA7455_XOFFL 0x10      // Read/Write, Offset Drift X LSB 
.................... #define MMA7455_XOFFH 0x11      // Read/Write, Offset Drift X MSB 
.................... #define MMA7455_YOFFL 0x12      // Read/Write, Offset Drift Y LSB 
.................... #define MMA7455_YOFFH 0x13      // Read/Write, Offset Drift Y MSB 
.................... #define MMA7455_ZOFFL 0x14      // Read/Write, Offset Drift Z LSB 
.................... #define MMA7455_ZOFFH 0x15      // Read/Write, Offset Drift Z MSB 
.................... #define MMA7455_MCTL 0x16       // Read/Write, Mode Control Register 
.................... #define MMA7455_INTRST 0x17     // Read/Write, Interrupt Latch Reset 
.................... #define MMA7455_CTL1 0x18       // Read/Write, Control 1 Register 
.................... #define MMA7455_CTL2 0x19       // Read/Write, Control 2 Register 
.................... #define MMA7455_LDTH 0x1A       // Read/Write, Level Detection Threshold Limit Value 
.................... #define MMA7455_PDTH 0x1B       // Read/Write, Pulse Detection Threshold Limit Value 
.................... #define MMA7455_PD 0x1C         // Read/Write, Pulse Duration Value 
.................... #define MMA7455_LT 0x1D         // Read/Write, Latency Time Value (between pulses) 
.................... #define MMA7455_TW 0x1E         // Read/Write, Time Window for Second Pulse Value 
.................... #define MMA7455_RESERVED2 0x1F  // Reserved 
....................  
.................... // Defines for the bits, to be able to change  
.................... // between bit number and binary definition. 
.................... // By using the bit number, programming the MMA7455  
.................... // is like programming an AVR microcontroller. 
.................... // But instead of using "(1<<X)", or "_BV(X)",  
.................... // the Arduino "bit(X)" is used. 
.................... #define MMA7455_D0 0x01 //0 
.................... #define MMA7455_D1 0x02 //1 
.................... #define MMA7455_D2 0x04 //2 
.................... #define MMA7455_D3 0x08 //3 
.................... #define MMA7455_D4 0x10 //4 
.................... #define MMA7455_D5 0x20 //5 
.................... #define MMA7455_D6 0x40 //6 
.................... #define MMA7455_D7 0x80 //7 
....................  
.................... // Status Register 
.................... #define MMA7455_DRDY MMA7455_D0 
.................... #define MMA7455_DOVR MMA7455_D1 
.................... #define MMA7455_PERR MMA7455_D2 
....................  
.................... // Mode Control Register 
.................... #define MMA7455_MODE0 MMA7455_D0 
.................... #define MMA7455_MODE1 MMA7455_D1 
.................... #define MMA7455_GLVL0 MMA7455_D2 
.................... #define MMA7455_GLVL1 MMA7455_D3 
.................... #define MMA7455_STON MMA7455_D4 
.................... #define MMA7455_SPI3W MMA7455_D5 
.................... #define MMA7455_DRPD MMA7455_D6 
....................  
.................... // Control 1 Register 
.................... #define MMA7455_INTPIN MMA7455_D0 
.................... #define MMA7455_INTREG0 MMA7455_D1 
.................... #define MMA7455_INTREG1 MMA7455_D2 
.................... #define MMA7455_XDA MMA7455_D3 
.................... #define MMA7455_YDA MMA7455_D4 
.................... #define MMA7455_ZDA MMA7455_D5 
.................... #define MMA7455_THOPT MMA7455_D6 
.................... #define MMA7455_DFBW MMA7455_D7 
....................  
.................... // Control 2 Register 
.................... #define MMA7455_LDPL MMA7455_D0 
.................... #define MMA7455_PDPL MMA7455_D1 
.................... #define MMA7455_DRVO MMA7455_D2 
....................  
.................... // Interrupt Latch Reset Register 
.................... #define MMA7455_CLR_INT1 MMA7455_D0 
.................... #define MMA7455_CLR_INT2 MMA7455_D1 
....................  
.................... // Detection Source Register 
.................... #define MMA7455_INT1 MMA7455_D0 
.................... #define MMA7455_INT2 MMA7455_D1 
.................... #define MMA7455_PDZ MMA7455_D2 
.................... #define MMA7455_PDY MMA7455_D3 
.................... #define MMA7455_PDX MMA7455_D4 
.................... #define MMA7455_LDZ MMA7455_D5 
.................... #define MMA7455_LDY MMA7455_D6 
.................... #define MMA7455_LDX MMA7455_D7 
....................  
.................... // I2C Device Address Register 
.................... #define MMA7455_I2CDIS MMA7455_D7 
....................  
.................... // Default I2C address for the MMA7455 
.................... #define MMA7455_I2C_ADDRESS 0x1D 
.................... //#define MMA7455_I2C_ADDRESS_READ 0X3B 
.................... #define MMA7455_I2C_ADDRESS_READ 0XA1 
.................... //#define MMA7455_I2C_ADDRESS_WRITE 0X3A 
.................... #define MMA7455_I2C_ADDRESS_WRITE 0XA0 
....................  
.................... // When using an union for the registers and 
.................... // the axis values, the byte order of the accelerometer 
.................... // should match the byte order of the compiler and AVR chip. 
.................... // Both have the lower byte at the lower address, 
.................... // so they match. 
.................... // This union is only used by the low level functions. 
.................... typedef union  
.................... { 
....................   struct 
....................   { 
....................     unsigned int8 x_lsb; 
....................     unsigned int8 x_msb; 
....................     unsigned int8 y_lsb; 
....................     unsigned int8 y_msb; 
....................     unsigned int8 z_lsb; 
....................     unsigned int8 z_msb; 
....................   } reg; 
....................   struct 
....................   { 
....................     int x; 
....................     int y; 
....................     int z; 
....................   } value; 
.................... } xyz_union; 
....................  
.................... typedef struct  
.................... { 
....................    /* data */ 
....................    unsigned int8 MODE_CONTROL; 
....................    unsigned int8 CONTROL_1; 
....................    unsigned int8 CONTROL_2; 
....................  
....................    int8 XOFFL; 
....................    int8 XOFFH; 
....................    int8 YOFFL; 
....................    int8 YOFFH; 
....................    int8 ZOFFL; 
....................    int8 ZOFFH;/*,//no implemntado 
....................    char _LEVEL_DETECTION_THREHOLDS; 
....................    char _PULSE_DETECTION_THREHOLDS; 
....................    char _PULSE_DURATION; 
....................    char _LANTENCY_TIME; 
....................    char _TIME_WINDOWS; 
....................    */ 
.................... } CONFIG_MMA7455; 
....................  
.................... //configuracion incial del MMA7455 
.................... int init_MMA(void); 
....................  
.................... //recalibra el offset del MMA7455 
.................... int calibrate_MMA(void); 
....................  
.................... //cambio de configuracion del MMA7455 
.................... void set_config(*CONFIG_MMA7455); 
....................  
.................... //Lectura de los valores de x y z 
.................... int xyz_MMA( int *pX, int *pY, int *pZ); 
....................  
.................... //Lectura de datosd desde el MMA7455 
.................... int read_MMA(unsigned char address, int8 *value); 
.................... int read_MMA(unsigned char start_address, int8 *buffer,int size); 
....................  
.................... //Escritura de datos en el MMA7455 
.................... int write_MMA(unsigned char address, int8 *value); 
.................... int write_MMA(unsigned char start_address, int8 *pData, int size); 
....................  
.................... #define testmma 
.................... #ifdef testmma 
.................... int1 ext_eeprom_ready(); 
.................... #endif 
.................... #endif 
....................  
.................... /* 
.................... DEFINICIONES: 
.................... MOV = deteccion de movimiento 
.................... CL = deteccion de caida libre 
....................  
.................... tabla 1: configuracion de INTRG 
.................... ------------------------ 
.................... INT2TRG      INT1   INT2 
.................... 00         LD       PD 
.................... 01         PD       LD 
.................... 10         sPD     dPD 
.................... ------------------------ 
....................  
.................... tabla2: configuracion de pines de interrupciones 
.................... ------------------- 
.................... INTPIN 
.................... 0       INT1bit  --> INT1pin, INT2bit  --> INT2pin 
.................... 1       INT1bit  --> INT2pin, INT2bit  --> INT1pin 
.................... ------------------- 
.................... */ 
....................  
.................... //#import(FILE=accelerometro.o) 
.................... #define READ  0b00000000 
.................... #define WRITE 0b10000000 
....................  
.................... extern CONFIG_MMA7455 CONFIG; 
.................... void setup_devices(){ 
*
0039E:  MOVLW  FF
003A0:  MOVWF  14
.................... 	int error = -1; 
.................... 	error = init_MMA(); 
003A2:  BRA    01F6
003A4:  MOVFF  01,14
....................    printf("init_error = %d\n\r", error); 
003A8:  MOVLW  04
003AA:  MOVWF  FF6
003AC:  MOVLW  00
003AE:  MOVWF  FF7
003B0:  MOVLW  0D
003B2:  MOVWF  15
003B4:  RCALL  0284
003B6:  MOVFF  14,15
003BA:  MOVLW  1F
003BC:  MOVWF  16
003BE:  BRA    02CC
003C0:  MOVLW  0A
003C2:  BTFSS  F9E.4
003C4:  BRA    03C2
003C6:  MOVWF  FAD
003C8:  MOVLW  0D
003CA:  BTFSS  F9E.4
003CC:  BRA    03CA
003CE:  MOVWF  FAD
....................    return; 
.................... } 
003D0:  GOTO   0510 (RETURN)
....................  
.................... unsigned int8 respuesta = 0x00; 
.................... void write_mma(int8 address){ 
....................    while(!spi_data_is_in()); 
.................... } 
....................  
.................... unsigned int8 read_mma(unsigned int8 address){ 
....................    address<<=1; 
....................    address|=READ; 
....................    //swap(address); 
....................    spi_write(address); 
....................    //while(!spi_data_is_in()){;} //comprobar con un tiempo espesifico 
....................    if(spi_data_is_in()){ 
....................       respuesta = spi_read(); 
....................       return respuesta; 
....................    }       
....................    return -1; 
.................... } 
....................  
....................  
.................... void main() 
.................... { 
*
00442:  CLRF   FF8
00444:  BCF    FD0.7
00446:  CLRF   FEA
00448:  CLRF   FE9
0044A:  BCF    FB8.3
0044C:  MOVLW  40
0044E:  MOVWF  FAF
00450:  MOVLW  A6
00452:  MOVWF  FAC
00454:  MOVLW  90
00456:  MOVWF  FAB
00458:  BSF    F94.3
0045A:  BSF    F94.4
0045C:  MOVLW  18
0045E:  MOVWF  FC8
00460:  MOVLW  28
00462:  MOVWF  FC6
00464:  BSF    FC7.7
00466:  BCF    FC7.6
00468:  CLRF   0A
0046A:  BCF    FB8.3
0046C:  MOVLW  40
0046E:  MOVWF  FAF
00470:  MOVLW  A6
00472:  MOVWF  FAC
00474:  MOVLW  90
00476:  MOVWF  FAB
00478:  BSF    F94.3
0047A:  BSF    F94.4
0047C:  MOVLW  18
0047E:  MOVWF  FC8
00480:  MOVLW  28
00482:  MOVWF  FC6
00484:  BSF    FC7.7
00486:  BCF    FC7.6
00488:  MOVF   FC1,W
0048A:  ANDLW  C0
0048C:  IORLW  0F
0048E:  MOVWF  FC1
00490:  MOVLW  07
00492:  MOVWF  FB4
00494:  CLRF   04
00496:  CLRF   05
00498:  MOVLW  01
0049A:  MOVWF  0B
0049C:  MOVLW  02
0049E:  MOVWF  0C
004A0:  MOVLW  03
004A2:  MOVWF  0D
004A4:  MOVLW  80
004A6:  MOVWF  0E
004A8:  MOVWF  0F
004AA:  MOVWF  10
004AC:  MOVWF  11
004AE:  MOVWF  12
004B0:  MOVWF  13
....................    //unsigned int8 count = 0x1F; 
....................    //unsigned int8 direcciones = 0x00; 
....................  
....................    setup_adc_ports(NO_ANALOGS|VSS_VDD); 
004B2:  MOVF   FC1,W
004B4:  ANDLW  C0
004B6:  IORLW  0F
004B8:  MOVWF  FC1
....................    setup_adc(ADC_CLOCK_DIV_2|ADC_TAD_MUL_0); 
004BA:  MOVF   FC0,W
004BC:  ANDLW  C0
004BE:  MOVWF  FC0
004C0:  BSF    FC0.7
004C2:  BSF    FC2.0
....................    setup_psp(PSP_DISABLED); 
004C4:  BCF    F96.4
....................    //setup_spi(SPI_MASTER|SPI_L_TO_H|SPI_CLK_DIV_16); 
....................    setup_wdt(WDT_OFF); 
004C6:  BCF    FD1.0
....................    setup_timer_0(RTCC_INTERNAL); 
004C8:  MOVLW  80
004CA:  MOVWF  FD5
....................    setup_timer_1(T1_DISABLED); 
004CC:  CLRF   FCD
....................    setup_timer_2(T2_DISABLED,0,1); 
004CE:  MOVLW  00
004D0:  MOVWF  FCA
004D2:  MOVLW  00
004D4:  MOVWF  FCB
....................    setup_timer_3(T3_DISABLED|T3_DIV_BY_1); 
004D6:  CLRF   FB1
....................    setup_ccp1(CCP_OFF); 
004D8:  BSF    F94.2
004DA:  CLRF   FBD
004DC:  CLRF   FB7
004DE:  CLRF   FB6
....................    setup_comparator(NC_NC_NC_NC); 
004E0:  MOVLW  07
004E2:  MOVWF  FB4
004E4:  MOVF   F92,W
004E6:  MOVWF  F92
004E8:  MOVLW  08
004EA:  MOVWF  00
004EC:  DECFSZ 00,F
004EE:  BRA    04EC
004F0:  MOVF   FB4,W
004F2:  BCF    FA1.6
....................    setup_vref(FALSE); 
004F4:  CLRF   FB5
.................... //Setup_Oscillator parameter not selected from Intr Oscillator Config tab 
....................    // TODO: USER CODE!! 
....................    set_tris_A(0b00001111); 
004F6:  MOVLW  0F
004F8:  MOVWF  F92
....................    output_a(0xf0); 
004FA:  CLRF   F92
004FC:  MOVLW  F0
004FE:  MOVWF  F89
....................    delay_ms(1000); 
00500:  MOVLW  04
00502:  MOVWF  14
00504:  MOVLW  FA
00506:  MOVWF  1E
00508:  RCALL  0032
0050A:  DECFSZ 14,F
0050C:  BRA    0504
....................    setup_devices(); 
0050E:  BRA    039E
....................    while(true){ 
....................       	printf("MODE CONTROL REGISTER: %u\n\r",(unsigned int8)CONFIG.MODE_CONTROL); 
00510:  MOVLW  16
00512:  MOVWF  FF6
00514:  MOVLW  00
00516:  MOVWF  FF7
00518:  MOVLW  17
0051A:  MOVWF  15
0051C:  RCALL  0284
0051E:  MOVFF  0B,14
00522:  MOVLW  1B
00524:  MOVWF  15
00526:  BRA    03D4
00528:  MOVLW  0A
0052A:  BTFSS  F9E.4
0052C:  BRA    052A
0052E:  MOVWF  FAD
00530:  MOVLW  0D
00532:  BTFSS  F9E.4
00534:  BRA    0532
00536:  MOVWF  FAD
....................        
....................       //direcciones = 0x00; 
....................    } 
00538:  BRA    0510
.................... } 
....................  
.................... /* 
....................       for (direcciones = 0x00; direcciones < count; direcciones++){ 
....................       //code 
....................          printf("ms rq: %X , ",direcciones); 
....................          if (read_mma(direcciones) != -1) 
....................          {             
....................             printf("rp: %X \n\r",respuesta); 
....................          } 
....................       } 
....................          */ 
....................  
.................... #include "Nucleo.h" 
.................... #include <18F4620.h> 
0053A:  SLEEP 
.................... //////// Standard Header file for the PIC18F4620 device //////////////// 
.................... #device PIC18F4620 
.................... #list 
....................  
.................... #device adc=10 
....................  
.................... #FUSES NOWDT                 	//No Watch Dog Timer 
.................... #FUSES WDT128                	//Watch Dog Timer uses 1:128 Postscale 
.................... #FUSES HS                    	//High speed Osc (> 4mhz for PCM/PCH) (>10mhz for PCD) 
.................... #FUSES NOPROTECT             	//Code not protected from reading 
.................... #FUSES IESO                  	//Internal External Switch Over mode enabled 
.................... #FUSES NOBROWNOUT            	//No brownout reset 
.................... #FUSES BORV21                	//Brownout reset at 2.1V 
.................... #FUSES NOPUT                 	//No Power Up Timer 
.................... #FUSES NOCPD                 	//No EE protection 
.................... #FUSES STVREN                	//Stack full/underflow will cause reset 
.................... #FUSES NODEBUG               	//No Debug mode for ICD 
.................... #FUSES NOLVP                 	//No low voltage prgming, B3(PIC16) or B5(PIC18) used for I/O 
.................... #FUSES NOWRT                 	//Program memory not write protected 
.................... #FUSES NOWRTD                	//Data EEPROM not write protected 
.................... #FUSES NOEBTR                	//Memory not protected from table reads 
.................... #FUSES NOCPB                 	//No Boot Block code protection 
.................... #FUSES NOEBTRB               	//Boot block not protected from table reads 
.................... #FUSES NOWRTC                	//configuration not registers write protected 
.................... #FUSES NOWRTB                	//Boot block not write protected 
.................... #FUSES FCMEN                 	//Fail-safe clock monitor enabled 
.................... #FUSES NOXINST               	//Extended set extension and Indexed Addressing mode disabled (Legacy mode) 
.................... #FUSES PBADEN                	//PORTB pins are configured as analog input channels on RESET 
.................... #FUSES LPT1OSC               	//Timer1 configured for low-power operation 
.................... #FUSES MCLR                  	//Master Clear pin enabled 
....................  
.................... #use delay(clock=10000000) 
.................... #use rs232(baud=9600,parity=N,xmit=PIN_C6,rcv=PIN_C7,bits=8) 
.................... #use i2c(master, sda=PIN_C4, scl=PIN_C3, FORCE_HW, RESTART_WDT)                    //directiva de compilador par ale uso del bus I2C del microcontrolador 
....................  
.................... #include "accelerometro.h"  
....................  
.................... #ifndef ACCELEROMETRO_H 
....................  
.................... #define ACCELEROMETRO_H 
....................  
.................... #define MMA7455_XOUTL 0x00      // Read only, Output Value X LSB 
.................... #define MMA7455_XOUTH 0x01      // Read only, Output Value X MSB 
.................... #define MMA7455_YOUTL 0x02      // Read only, Output Value Y LSB 
.................... #define MMA7455_YOUTH 0x03      // Read only, Output Value Y MSB 
.................... #define MMA7455_ZOUTL 0x04      // Read only, Output Value Z LSB 
.................... #define MMA7455_ZOUTH 0x05      // Read only, Output Value Z MSB 
.................... #define MMA7455_XOUT8 0x06      // Read only, Output Value X 8 bits 
.................... #define MMA7455_YOUT8 0x07      // Read only, Output Value Y 8 bits 
.................... #define MMA7455_ZOUT8 0x08      // Read only, Output Value Z 8 bits 
.................... #define MMA7455_STATUS 0x09     // Read only, Status Register 
.................... #define MMA7455_DETSRC 0x0A     // Read only, Detection Source Register 
.................... #define MMA7455_TOUT 0x0B       // Temperature Output Value (Optional) 
.................... #define MMA7455_RESERVED1 0x0C  // Reserved 
.................... #define MMA7455_I2CAD 0x0D      // Read/Write, I2C Device Address 
.................... #define MMA7455_USRINF 0x0E     // Read only, User Information (Optional) 
.................... #define MMA7455_WHOAMI 0x0F     // Read only, "Who am I" value (Optional) 
.................... #define MMA7455_XOFFL 0x10      // Read/Write, Offset Drift X LSB 
.................... #define MMA7455_XOFFH 0x11      // Read/Write, Offset Drift X MSB 
.................... #define MMA7455_YOFFL 0x12      // Read/Write, Offset Drift Y LSB 
.................... #define MMA7455_YOFFH 0x13      // Read/Write, Offset Drift Y MSB 
.................... #define MMA7455_ZOFFL 0x14      // Read/Write, Offset Drift Z LSB 
.................... #define MMA7455_ZOFFH 0x15      // Read/Write, Offset Drift Z MSB 
.................... #define MMA7455_MCTL 0x16       // Read/Write, Mode Control Register 
.................... #define MMA7455_INTRST 0x17     // Read/Write, Interrupt Latch Reset 
.................... #define MMA7455_CTL1 0x18       // Read/Write, Control 1 Register 
.................... #define MMA7455_CTL2 0x19       // Read/Write, Control 2 Register 
.................... #define MMA7455_LDTH 0x1A       // Read/Write, Level Detection Threshold Limit Value 
.................... #define MMA7455_PDTH 0x1B       // Read/Write, Pulse Detection Threshold Limit Value 
.................... #define MMA7455_PD 0x1C         // Read/Write, Pulse Duration Value 
.................... #define MMA7455_LT 0x1D         // Read/Write, Latency Time Value (between pulses) 
.................... #define MMA7455_TW 0x1E         // Read/Write, Time Window for Second Pulse Value 
.................... #define MMA7455_RESERVED2 0x1F  // Reserved 
....................  
.................... // Defines for the bits, to be able to change  
.................... // between bit number and binary definition. 
.................... // By using the bit number, programming the MMA7455  
.................... // is like programming an AVR microcontroller. 
.................... // But instead of using "(1<<X)", or "_BV(X)",  
.................... // the Arduino "bit(X)" is used. 
.................... #define MMA7455_D0 0x01 //0 
.................... #define MMA7455_D1 0x02 //1 
.................... #define MMA7455_D2 0x04 //2 
.................... #define MMA7455_D3 0x08 //3 
.................... #define MMA7455_D4 0x10 //4 
.................... #define MMA7455_D5 0x20 //5 
.................... #define MMA7455_D6 0x40 //6 
.................... #define MMA7455_D7 0x80 //7 
....................  
.................... // Status Register 
.................... #define MMA7455_DRDY MMA7455_D0 
.................... #define MMA7455_DOVR MMA7455_D1 
.................... #define MMA7455_PERR MMA7455_D2 
....................  
.................... // Mode Control Register 
.................... #define MMA7455_MODE0 MMA7455_D0 
.................... #define MMA7455_MODE1 MMA7455_D1 
.................... #define MMA7455_GLVL0 MMA7455_D2 
.................... #define MMA7455_GLVL1 MMA7455_D3 
.................... #define MMA7455_STON MMA7455_D4 
.................... #define MMA7455_SPI3W MMA7455_D5 
.................... #define MMA7455_DRPD MMA7455_D6 
....................  
.................... // Control 1 Register 
.................... #define MMA7455_INTPIN MMA7455_D0 
.................... #define MMA7455_INTREG0 MMA7455_D1 
.................... #define MMA7455_INTREG1 MMA7455_D2 
.................... #define MMA7455_XDA MMA7455_D3 
.................... #define MMA7455_YDA MMA7455_D4 
.................... #define MMA7455_ZDA MMA7455_D5 
.................... #define MMA7455_THOPT MMA7455_D6 
.................... #define MMA7455_DFBW MMA7455_D7 
....................  
.................... // Control 2 Register 
.................... #define MMA7455_LDPL MMA7455_D0 
.................... #define MMA7455_PDPL MMA7455_D1 
.................... #define MMA7455_DRVO MMA7455_D2 
....................  
.................... // Interrupt Latch Reset Register 
.................... #define MMA7455_CLR_INT1 MMA7455_D0 
.................... #define MMA7455_CLR_INT2 MMA7455_D1 
....................  
.................... // Detection Source Register 
.................... #define MMA7455_INT1 MMA7455_D0 
.................... #define MMA7455_INT2 MMA7455_D1 
.................... #define MMA7455_PDZ MMA7455_D2 
.................... #define MMA7455_PDY MMA7455_D3 
.................... #define MMA7455_PDX MMA7455_D4 
.................... #define MMA7455_LDZ MMA7455_D5 
.................... #define MMA7455_LDY MMA7455_D6 
.................... #define MMA7455_LDX MMA7455_D7 
....................  
.................... // I2C Device Address Register 
.................... #define MMA7455_I2CDIS MMA7455_D7 
....................  
.................... // Default I2C address for the MMA7455 
.................... #define MMA7455_I2C_ADDRESS 0x1D 
.................... //#define MMA7455_I2C_ADDRESS_READ 0X3B 
.................... #define MMA7455_I2C_ADDRESS_READ 0XA1 
.................... //#define MMA7455_I2C_ADDRESS_WRITE 0X3A 
.................... #define MMA7455_I2C_ADDRESS_WRITE 0XA0 
....................  
.................... // When using an union for the registers and 
.................... // the axis values, the byte order of the accelerometer 
.................... // should match the byte order of the compiler and AVR chip. 
.................... // Both have the lower byte at the lower address, 
.................... // so they match. 
.................... // This union is only used by the low level functions. 
.................... typedef union  
.................... { 
....................   struct 
....................   { 
....................     unsigned int8 x_lsb; 
....................     unsigned int8 x_msb; 
....................     unsigned int8 y_lsb; 
....................     unsigned int8 y_msb; 
....................     unsigned int8 z_lsb; 
....................     unsigned int8 z_msb; 
....................   } reg; 
....................   struct 
....................   { 
....................     int x; 
....................     int y; 
....................     int z; 
....................   } value; 
.................... } xyz_union; 
....................  
.................... typedef struct  
.................... { 
....................    /* data */ 
....................    unsigned int8 MODE_CONTROL; 
....................    unsigned int8 CONTROL_1; 
....................    unsigned int8 CONTROL_2; 
....................  
....................    int8 XOFFL; 
....................    int8 XOFFH; 
....................    int8 YOFFL; 
....................    int8 YOFFH; 
....................    int8 ZOFFL; 
....................    int8 ZOFFH;/*,//no implemntado 
....................    char _LEVEL_DETECTION_THREHOLDS; 
....................    char _PULSE_DETECTION_THREHOLDS; 
....................    char _PULSE_DURATION; 
....................    char _LANTENCY_TIME; 
....................    char _TIME_WINDOWS; 
....................    */ 
.................... } CONFIG_MMA7455; 
....................  
.................... //configuracion incial del MMA7455 
.................... int init_MMA(void); 
....................  
.................... //recalibra el offset del MMA7455 
.................... int calibrate_MMA(void); 
....................  
.................... //cambio de configuracion del MMA7455 
.................... void set_config(*CONFIG_MMA7455); 
....................  
.................... //Lectura de los valores de x y z 
.................... int xyz_MMA( int *pX, int *pY, int *pZ); 
....................  
.................... //Lectura de datosd desde el MMA7455 
.................... int read_MMA(unsigned char address, int8 *value); 
.................... int read_MMA(unsigned char start_address, int8 *buffer,int size); 
....................  
.................... //Escritura de datos en el MMA7455 
.................... int write_MMA(unsigned char address, int8 *value); 
.................... int write_MMA(unsigned char start_address, int8 *pData, int size); 
....................  
.................... #define testmma 
.................... #ifdef testmma 
.................... int1 ext_eeprom_ready(); 
.................... #endif 
.................... #endif 
....................  
.................... /* 
.................... DEFINICIONES: 
.................... MOV = deteccion de movimiento 
.................... CL = deteccion de caida libre 
....................  
.................... tabla 1: configuracion de INTRG 
.................... ------------------------ 
.................... INT2TRG      INT1   INT2 
.................... 00         LD       PD 
.................... 01         PD       LD 
.................... 10         sPD     dPD 
.................... ------------------------ 
....................  
.................... tabla2: configuracion de pines de interrupciones 
.................... ------------------- 
.................... INTPIN 
.................... 0       INT1bit  --> INT1pin, INT2bit  --> INT2pin 
.................... 1       INT1bit  --> INT2pin, INT2bit  --> INT1pin 
.................... ------------------- 
.................... */ 
....................  
....................  
.................... CONFIG_MMA7455 CONFIG = {1,2,3,128,128,128,128,128,128}; 
.................... //configuracion inicial del MMA7455 
.................... int init_MMA(void){ 
*
001F6:  CLRF   15
001F8:  CLRF   1C
001FA:  CLRF   1D
....................   int error = 0; 
....................   xyz_union xyz; 
....................   unsigned int8 c1 = 0, c2 = 0; 
....................   //mode: measurement; sensitivity: 4g 
....................   c1 = MMA7455_GLVL1 | MMA7455_MODE0; 
001FC:  MOVLW  09
001FE:  MOVWF  1C
....................   error = write_MMA(MMA7455_MCTL, &c1); 
00200:  MOVLW  16
00202:  MOVWF  1E
00204:  CLRF   20
00206:  MOVLW  1C
00208:  MOVWF  1F
0020A:  BRA    0076
0020C:  MOVFF  01,15
....................   if (error != 0) 
00210:  MOVF   15,F
00212:  BZ    021A
....................     return (error); 
00214:  MOVFF  15,01
00218:  BRA    0280
....................    
....................   //lee la configuracion del accelerometro para comprobar el envio 
....................   error = read_MMA(MMA7455_MCTL, &c2); 
0021A:  MOVLW  16
0021C:  MOVWF  1E
0021E:  CLRF   20
00220:  MOVLW  1D
00222:  MOVWF  1F
00224:  BRA    0116
00226:  MOVFF  01,15
....................   if (error != 0) 
0022A:  MOVF   15,F
0022C:  BZ    0234
....................     return (error); 
0022E:  MOVFF  15,01
00232:  BRA    0280
....................    
....................   //se comprueban que coinsidan 
....................   if (c1 != c2) 
00234:  MOVF   1D,W
00236:  SUBWF  1C,W
00238:  BZ    0242
....................     return (-99); 
0023A:  MOVLW  9D
0023C:  MOVWF  01
0023E:  BRA    0280
....................   else 
00240:  BRA    0246
....................     CONFIG.MODE_CONTROL =  c2;    //se respalda la configuracion en el micro 
00242:  MOVFF  1D,0B
....................   //se configura el offset de los ejes a 0 
....................   xyz.value.x = xyz.value.y = xyz.value.z = 0; 
00246:  CLRF   18
00248:  MOVFF  18,17
0024C:  MOVFF  17,16
....................   error = write_MMA(MMA7455_XOFFL, (unsigned int8 *) &xyz, 6); 
00250:  CLRF   01
00252:  MOVLW  16
00254:  MOVWF  00
00256:  MOVLW  10
00258:  MOVWF  20
0025A:  MOVFF  01,22
0025E:  MOVFF  00,21
00262:  MOVLW  06
00264:  MOVWF  23
00266:  BRA    0182
00268:  MOVFF  01,15
....................   if (error != 0) 
0026C:  MOVF   15,F
0026E:  BZ    0276
....................     return (error); 
00270:  MOVFF  15,01
00274:  BRA    0280
....................    
....................   delay_ms(100); 
00276:  MOVLW  64
00278:  MOVWF  1E
0027A:  RCALL  0032
....................   return 0; 
0027C:  MOVLW  00
0027E:  MOVWF  01
.................... } 
00280:  GOTO   03A4 (RETURN)
....................  
.................... //calibra el offset de los valores de X, Y, Z. 
.................... int calibrate_MMA(void){ 
....................   int x, y, z, error = 0; 
....................   xyz_union xyz; 
....................   unsigned int8 c1 = 0, c2 = 0; 
....................  
....................   c1 = (CONFIG.MODE_CONTROL & (MMA7455_GLVL1|MMA7455_GLVL0));   //selecciona los bit de GLVL 
....................   if(c1 == (MMA7455_GLVL0 | MMA7455_GLVL1)){  // si es 8g 
....................     c2 = 16; 
....................   }else if(c1 == MMA7455_GLVL1){ //si es 4g 
....................     c2 = 32; 
....................   }else if(c1 == MMA7455_GLVL0){ //si es 2g 
....................     c2 = 64; 
....................   }else{ 
....................     c2 = 64;  //por defecto 2g 
....................   } 
....................  
....................   error = xyz_MMA(&x, &y, &z); 
....................   if (error != 0) 
....................     return (error); 
....................  
....................   xyz.value.x = 2 * -x;         
....................   xyz.value.y = 2 * -y; 
....................   xyz.value.z = 2 * -(z-c2); 
....................  
....................   error = write_MMA(MMA7455_XOFFL, (unsigned int8 *) &xyz, 6); 
....................   if (error != 0) 
....................     return (error); 
....................  
....................   delay_ms(200); 
....................    
....................   error = xyz_MMA(&x, &y, &z); 
....................   if (error != 0) 
....................     return (error); 
....................  
....................   xyz.value.x = 2 * -x;         
....................   xyz.value.y = 2 * -y; 
....................   xyz.value.z = 2 * -(z-c2); 
....................  
....................   error = write_MMA(MMA7455_XOFFL, (unsigned int8 *) &xyz, 6); 
....................   if (error != 0) 
....................     return (error); 
....................  
....................   error = read_MMA(MMA7455_XOFFL, (unsigned int8 *) &xyz, 6); 
....................   if (error != 0) 
....................     return (error); 
....................  
....................   CONFIG.XOFFL = xyz.reg.x_lsb; 
....................   CONFIG.XOFFH = xyz.reg.x_msb; 
....................   CONFIG.YOFFL = xyz.reg.x_lsb; 
....................   CONFIG.YOFFH = xyz.reg.x_msb; 
....................   CONFIG.ZOFFL = xyz.reg.x_lsb; 
....................   CONFIG.ZOFFH = xyz.reg.x_msb; 
....................  
....................   return 0; 
.................... } 
....................  
.................... void set_config(*CONFIG_MMA7455){ 
....................  return; 
.................... }// cambiar la configuracion incicial (del SPI y/o MMA) 
....................  
....................  
.................... int xyz_MMA( int *pX, int *pY, int *pZ){ 
....................   xyz_union xyz; 
....................   int error = 0; 
....................   unsigned int8 c; 
....................  
....................   do{ 
....................  
....................     error = read_MMA(MMA7455_STATUS,&c); 
....................   }while(!bit_test(c, 0) && error == 0); 
....................    
....................   if (error != 0) 
....................     return (error); 
....................  
....................   error = read_MMA(MMA7455_XOUTL, (unsigned int8 *)&xyz, 6); 
....................   if (error != 0) 
....................     return (error); 
....................  
....................   // The output is 10-bits and could be negative. 
....................   // To use the output as a 16-bit signed integer, 
....................   // the sign bit (bit 9) is extended for the 16 bits. 
....................   if (xyz.reg.x_msb & 0x02)    // Bit 9 is sign bit. 
....................     xyz.reg.x_msb |= 0xFC;     // Stretch bit 9 over other bits. 
....................   if (xyz.reg.y_msb & 0x02) 
....................     xyz.reg.y_msb |= 0xFC; 
....................   if (xyz.reg.z_msb & 0x02) 
....................     xyz.reg.z_msb |= 0xFC; 
....................  
....................   // The result is the g-force in units of 64 per 'g'. 
....................   *pX = xyz.value.x; 
....................   *pY = xyz.value.y; 
....................   *pZ = xyz.value.z; 
....................  
....................   return 0; 
.................... } 
.................... /*///////////////////////////////////////////// 
.................... read_MMA(): funcion para la lectura de datos desde el accelerometro MMA7455 
....................             hasta el dispositivo maestro 
.................... parametros: 
....................   start: direccion de inicial desde se realizara la lectura 
....................   buffer: buffer de almacenamiento de los datos leidos 
....................   size: cantidad de bytes a leer desde el esclavo 
....................  
.................... returna: 
....................   int: 0 no error,  
....................       1 error de inicio de transmision,  
....................       2 error de peticion de datos, 
....................       -11 error en la lectura desde el MMA  
.................... */ 
.................... int read_MMA(unsigned char address, int8 *value){ 
*
00116:  CLRF   21
....................   int error = 0; 
....................    //condicion de inicio de lectura en el MMA7455  
....................   #ifdef testmma 
....................   while(!ext_eeprom_ready()); 
00118:  BRA    00D2
0011A:  MOVF   01,F
0011C:  BZ    0118
....................   #endif 
....................  
....................   i2c_start();                                    //seal de start del bus i2c 
0011E:  BSF    FC5.0
00120:  BTFSC  FC5.0
00122:  BRA    0120
....................   error = i2c_write(MMA7455_I2C_ADDRESS_WRITE);   //se envia la direccion del MMA7455 con escritura 
00124:  MOVLW  A0
00126:  MOVWF  28
00128:  RCALL  005A
0012A:  MOVFF  01,21
....................    
....................   //////////////////////// 
....................   #ifdef testmma 
....................   i2c_write(0); 
0012E:  CLRF   28
00130:  RCALL  005A
....................   #endif 
....................   //////////////////////// 
....................   error = i2c_write(address);                     //envia el registro inicial de lectura del MMA 
00132:  MOVFF  1E,28
00136:  RCALL  005A
00138:  MOVFF  01,21
....................   if(error!=0){return 1;}                         //si existe un error sale de la funcion 
0013C:  MOVF   21,F
0013E:  BZ    0146
00140:  MOVLW  01
00142:  MOVWF  01
00144:  BRA    017E
....................    
....................   //peticion de datos desde el MMA7455 
....................   i2c_start();                                    //seal de restart del bus i2c 
00146:  BSF    FC5.1
00148:  BTFSC  FC5.1
0014A:  BRA    0148
....................   error = i2c_write(MMA7455_I2C_ADDRESS_READ);    //se envia la direccion del MMA7455 con lectura   
0014C:  MOVLW  A1
0014E:  MOVWF  28
00150:  RCALL  005A
00152:  MOVFF  01,21
....................   if(error!=0){return 2;} 
00156:  MOVF   21,F
00158:  BZ    0160
0015A:  MOVLW  02
0015C:  MOVWF  01
0015E:  BRA    017E
....................   #ifndef testmma  
....................   while(!i2c_poll()); 
....................   #endif 
....................   *value = i2c_read(0); 
00160:  MOVFF  20,03
00164:  MOVFF  1F,FE9
00168:  MOVFF  20,FEA
0016C:  CLRF   00
0016E:  BRA    00F8
00170:  MOVFF  01,FEF
....................   i2c_stop(); 
00174:  BSF    FC5.2
00176:  BTFSC  FC5.2
00178:  BRA    0176
....................   return 0; 
0017A:  MOVLW  00
0017C:  MOVWF  01
.................... } 
0017E:  GOTO   0226 (RETURN)
....................  
.................... int read_MMA(unsigned char start_address, unsigned int8 *buffer,int size){ 
....................   int error = 0, i = 0; 
....................   int1 ack = 1; 
....................    
....................   #ifdef testmma 
....................   while(!ext_eeprom_ready()); 
....................   #endif 
....................  
....................   //condicion de inicio de lectura en el MMA7455  
....................   i2c_start();                                    //seal de start del bus i2c 
....................   error = i2c_write(MMA7455_I2C_ADDRESS_WRITE);   //se envia la direccion del MMA7455 con escritura 
....................    
....................   //////////////////////// 
....................   #ifdef testmma 
....................   i2c_write(0); 
....................   #endif 
....................   //////////////////////// 
....................   error = i2c_write(start_address);               //envia el registro inicial de lectura del MMA 
....................   if(error!=0){return 1;}                         //si existe un error sale de la funcion 
....................    
....................   //peticion de datos desde el MMA7455 
....................   i2c_start();                                    //seal de restart del bus i2c 
....................   error = i2c_write(MMA7455_I2C_ADDRESS_READ);    //se envia la direccion del MMA7455 con lectura   
....................   if(error!=0){return 2;}                         //si error en reques sale de la funcion 
....................  
....................   i = 0; 
....................   ack = 1; 
....................   while(i2c_poll() && i<size){                    //espera minetras llega un dato desde el MMA7455 
....................     if((i+1) >= size){ack = 0;}                   //si es el ultimo byte envia NACK 
....................     buffer[i++]=i2c_read(ack);                    //lee un byte del bus i2c y envia un ACK 
....................   } 
....................  
....................   i2c_stop();                                     //seal de stop en el bus i2c 
....................    
....................   if ( i != size){return (3);}                    //retorna 3 si no se completo la lectura 
....................    
....................   return (0);   //retorna 0 si succed 
.................... } //leer datos desde el mma 
....................  
....................  
.................... int write_MMA(unsigned char address, int8 *value){ 
*
00076:  CLRF   21
....................   int error = 0; 
....................   //condicion de inicio de escritura en el MMA7455 
....................   i2c_start();                                    //seal de start del bus i2c 
00078:  BSF    FC5.0
0007A:  BTFSC  FC5.0
0007C:  BRA    007A
....................   error = i2c_write(MMA7455_I2C_ADDRESS_WRITE);   //se envia la direccion del MMA7455 con escritura 
0007E:  MOVLW  A0
00080:  MOVWF  28
00082:  RCALL  005A
00084:  MOVFF  01,21
....................    
....................   //////////////////////// 
....................   #ifdef testmma 
....................   i2c_write(0); 
00088:  CLRF   28
0008A:  RCALL  005A
....................   #endif 
....................   //////////////////////// 
....................   error = i2c_write(address);               //envia el registro inicial de escritura del MMA 
0008C:  MOVFF  1E,28
00090:  RCALL  005A
00092:  MOVFF  01,21
....................   if(error!=0){return 1;} 
00096:  MOVF   21,F
00098:  BZ    00A0
0009A:  MOVLW  01
0009C:  MOVWF  01
0009E:  BRA    00CE
....................   error = i2c_write(*value);               //envia el registro inicial de escritura del MMA 
000A0:  MOVFF  20,03
000A4:  MOVFF  1F,FE9
000A8:  MOVFF  20,FEA
000AC:  MOVFF  FEF,22
000B0:  MOVFF  22,28
000B4:  RCALL  005A
000B6:  MOVFF  01,21
....................   if(error!=0){return 2;} 
000BA:  MOVF   21,F
000BC:  BZ    00C4
000BE:  MOVLW  02
000C0:  MOVWF  01
000C2:  BRA    00CE
....................   i2c_stop(); 
000C4:  BSF    FC5.2
000C6:  BTFSC  FC5.2
000C8:  BRA    00C6
....................   return 0; 
000CA:  MOVLW  00
000CC:  MOVWF  01
.................... } 
000CE:  GOTO   020C (RETURN)
....................  
....................  
.................... int write_MMA(unsigned char start_address, int8 *pData, int size){ 
*
00182:  CLRF   24
00184:  CLRF   25
00186:  BCF    26.0
....................   int error = 0, i = 0; 
....................   int1 ack = 0; 
....................  
....................   //condicion de inicio de escritura en el MMA7455 
....................   i2c_start();                                    //seal de start del bus i2c 
00188:  BSF    FC5.0
0018A:  BTFSC  FC5.0
0018C:  BRA    018A
....................   error = i2c_write(MMA7455_I2C_ADDRESS_WRITE);   //se envia la direccion del MMA7455 con escritura 
0018E:  MOVLW  A0
00190:  MOVWF  28
00192:  RCALL  005A
00194:  MOVFF  01,24
....................    
....................   //////////////////////// 
....................   #ifdef testmma 
....................   i2c_write(0); 
00198:  CLRF   28
0019A:  RCALL  005A
....................   #endif 
....................   //////////////////////// 
....................   error = i2c_write(start_address);               //envia el registro inicial de escritura del MMA 
0019C:  MOVFF  20,28
001A0:  RCALL  005A
001A2:  MOVFF  01,24
....................   if(error!=0){return 1;}                         //si error en reques sale de la funcion 
001A6:  MOVF   24,F
001A8:  BZ    01B0
001AA:  MOVLW  01
001AC:  MOVWF  01
001AE:  BRA    01F2
....................    
....................   do{ 
....................     ack = i2c_write(pData[i++]);                  //escribe un byte y espera un ACK 
001B0:  MOVF   25,W
001B2:  INCF   25,F
001B4:  CLRF   03
001B6:  ADDWF  21,W
001B8:  MOVWF  FE9
001BA:  MOVF   22,W
001BC:  ADDWFC 03,W
001BE:  MOVWF  FEA
001C0:  MOVFF  FEF,27
001C4:  MOVFF  27,28
001C8:  RCALL  005A
001CA:  MOVF   01,W
001CC:  BCF    26.0
001CE:  BTFSC  01.0
001D0:  BSF    26.0
....................   }while(ack == 0 && i < size); 
001D2:  BTFSC  26.0
001D4:  BRA    01DC
001D6:  MOVF   23,W
001D8:  SUBWF  25,W
001DA:  BNC   01B0
....................    
....................   i2c_stop(); 
001DC:  BSF    FC5.2
001DE:  BTFSC  FC5.2
001E0:  BRA    01DE
....................   if(i != size){return 2;}                        //si no se completo la escritura retorna error 2 
001E2:  MOVF   23,W
001E4:  SUBWF  25,W
001E6:  BZ    01EE
001E8:  MOVLW  02
001EA:  MOVWF  01
001EC:  BRA    01F2
....................   return 0;                                       //retorna 0 si succed 
001EE:  MOVLW  00
001F0:  MOVWF  01
.................... } //escribir datos desde el mma 
001F2:  GOTO   0268 (RETURN)
....................  
.................... #ifdef testmma 
.................... int1 ext_eeprom_ready() { 
....................   int1 ack; 
....................   i2c_start();            // If the write command is acknowledged, 
*
000D2:  BSF    FC5.0
000D4:  BTFSC  FC5.0
000D6:  BRA    00D4
....................   ack = i2c_write(0xa0);  // then the device is ready. 
000D8:  MOVLW  A0
000DA:  MOVWF  28
000DC:  RCALL  005A
000DE:  MOVF   01,W
000E0:  BCF    22.0
000E2:  BTFSC  01.0
000E4:  BSF    22.0
....................   i2c_stop(); 
000E6:  BSF    FC5.2
000E8:  BTFSC  FC5.2
000EA:  BRA    00E8
....................   return !ack; 
000EC:  MOVLW  00
000EE:  BTFSS  22.0
000F0:  MOVLW  01
000F2:  MOVWF  01
.................... } 
000F4:  GOTO   011A (RETURN)
.................... #endif 

Configuration Fuses:
   Word  1: C200   HS IESO FCMEN
   Word  2: 0E19   NOBROWNOUT WDT128 NOWDT BORV21 NOPUT
   Word  3: 8700   CCP2C1 PBADEN LPT1OSC MCLR
   Word  4: 0081   STVREN NODEBUG NOLVP NOXINST
   Word  5: C00F   NOPROTECT NOCPD NOCPB
   Word  6: E00F   NOWRT NOWRTD NOWRTC NOWRTB
   Word  7: 400F   NOEBTR NOEBTRB
