CCS PCH C Compiler, Version 4.105, 13255               13-Oct-12 09:42

               Filename: G:\Project\pic\CCS\MMA7455l\Nucleo.lst

               ROM used: 2132 bytes (7%)
                         Largest free fragment is 30636
               RAM used: 95 (5%) at main() level
                         104 (5%) worst case
               Stack:    3 locations

*
0000:  GOTO   05EE
....................  
.................... #include "Nucleo.h" 
.................... /* 
.................... configuracione de hardware 
.................... oscilador: 20Mhz. con PLL:activo para dividir por 5 y obtener 4Mhz, aumentarlo a 96Mhz y dividirlo a 48Mhz para la frecuencia del modulo USB; 
.................... frecuencia de la CPU:24 Mhz; el FUSE CPIDIV3 para dividir los 96Mhz hasta 24MHz como frecuencia de entradad de la CPU  
....................  
....................  
.................... */ 
....................  
.................... #ifndef NUCLEO_H 
.................... #define NUCLEO_H 
.................... #include <18F4550.h> 
.................... //////// Standard Header file for the PIC18F4550 device //////////////// 
.................... #device PIC18F4550 
.................... #list 
....................  
.................... #device adc=10 
....................  
.................... /* 
.................... #include <18F4620.h> 
.................... //#include "registros.h" 
.................... #device adc=10 
.................... */ 
....................  
.................... #FUSES NOWDT                 	//No Watch Dog Timer 
.................... #FUSES WDT128                	//Watch Dog Timer uses 1:128 Postscale 
.................... #FUSES HSPLL                  //High speed Osc (> 4mhz for PCM/PCH) (>10mhz for PCD) with PLL enable 
.................... #FUSES NOPROTECT             	//Code not protected from reading 
.................... #FUSES NOBROWNOUT            	//No brownout reset 
.................... #FUSES BORV20                	//Brownout reset at 2.1V 
.................... #FUSES NOPUT                 	//No Power Up Timer 
.................... #FUSES NOCPD                 	//No EE protection 
.................... #FUSES STVREN                	//Stack full/underflow will cause reset 
....................  
.................... #FUSES NODEBUG               	//No Debug mode for ICD 
.................... #FUSES NOLVP                 	//No low voltage prgming, B3(PIC16) or B5(PIC18) used for I/O 
.................... #FUSES NOWRT                 	//Program memory not write protected 
.................... #FUSES NOWRTD                	//Data EEPROM not write protected 
.................... #FUSES IESO                  	//Internal External Switch Over mode enabled 
.................... #FUSES FCMEN                 	//Fail-safe clock monitor enabled 
.................... #FUSES PBADEN                	//PORTB pins are configured as analog input channels on RESET 
.................... #FUSES NOWRTC                	//configuration not registers write protected 
.................... #FUSES NOWRTB                	//Boot block not write protected 
.................... #FUSES NOEBTR                	//Memory not protected from table reads 
....................  
.................... #FUSES NOEBTRB               	//Boot block not protected from table reads 
.................... #FUSES NOCPB                 	//No Boot Block code protection 
.................... #FUSES MCLR                  	//Master Clear pin enabled 
.................... #FUSES LPT1OSC               	//Timer1 configured for low-power operation 
.................... #FUSES NOXINST               	//Extended set extension and Indexed Addressing mode disabled (Legacy mode) 
.................... #FUSES PLL5							//PLL enable div by 5 input Osc 
.................... #FUSES CPUDIV3						//postscaler PLL div by 4                       
.................... #FUSES USBDIV						//enable USBDIV, div output PLL by 2 
.................... #FUSES VREGEN						//internal regulator USB enable 
.................... #FUSES ICPRT						 
.................... #FUSES CCP2C1						//CPP input/output multiplexed whit RC1 
....................  
.................... //cambiar el valor del clock si se cambia la frecuencia de la CPU 
.................... #use delay(clock=24000000) 
05C4:  CLRF   FEA
05C6:  MOVLW  5F
05C8:  MOVWF  FE9
05CA:  MOVF   FEF,W
05CC:  BZ    05EA
05CE:  MOVLW  07
05D0:  MOVWF  01
05D2:  CLRF   00
05D4:  DECFSZ 00,F
05D6:  BRA    05D4
05D8:  DECFSZ 01,F
05DA:  BRA    05D2
05DC:  MOVLW  C7
05DE:  MOVWF  00
05E0:  DECFSZ 00,F
05E2:  BRA    05E0
05E4:  NOP   
05E6:  DECFSZ FEF,F
05E8:  BRA    05CE
05EA:  GOTO   084C (RETURN)
.................... #use rs232(baud=9600,parity=N,xmit=PIN_C6,rcv=PIN_C7,bits=8) 
.................... #define PIN_SDA PIN_B0 
.................... #define PIN_SCL PIN_B1 
.................... #use i2c(master, sda= PIN_SDA, scl=PIN_SCL/*, FORCE_HW, RESTART_WDT*/)                    //directiva de compilador para el uso del bus I2C del microcontrolador 
*
004A:  MOVLW  08
004C:  MOVWF  01
004E:  MOVLW  07
0050:  MOVWF  00
0052:  DECFSZ 00,F
0054:  BRA    0052
0056:  BCF    F8A.1
0058:  BCF    F93.1
005A:  MOVLW  07
005C:  MOVWF  00
005E:  DECFSZ 00,F
0060:  BRA    005E
0062:  RLCF   x62,F
0064:  BCF    F8A.0
0066:  BTFSC  FD8.0
0068:  BSF    F93.0
006A:  BTFSS  FD8.0
006C:  BCF    F93.0
006E:  BSF    F93.1
0070:  BTFSS  F81.1
0072:  BRA    0070
0074:  DECFSZ 01,F
0076:  BRA    004E
0078:  MOVLW  07
007A:  MOVWF  00
007C:  DECFSZ 00,F
007E:  BRA    007C
0080:  BCF    F8A.1
0082:  BCF    F93.1
0084:  NOP   
0086:  BSF    F93.0
0088:  MOVLW  07
008A:  MOVWF  00
008C:  DECFSZ 00,F
008E:  BRA    008C
0090:  MOVLW  07
0092:  MOVWF  00
0094:  DECFSZ 00,F
0096:  BRA    0094
0098:  BSF    F93.1
009A:  BTFSS  F81.1
009C:  BRA    009A
009E:  CLRF   01
00A0:  MOVLW  07
00A2:  MOVWF  00
00A4:  DECFSZ 00,F
00A6:  BRA    00A4
00A8:  BTFSC  F81.0
00AA:  BSF    01.0
00AC:  BCF    F8A.1
00AE:  BCF    F93.1
00B0:  BCF    F8A.0
00B2:  BCF    F93.0
00B4:  RETLW  00
00B6:  MOVLW  08
00B8:  MOVWF  x62
00BA:  MOVFF  00,63
00BE:  BSF    F93.0
00C0:  MOVLW  07
00C2:  MOVWF  00
00C4:  DECFSZ 00,F
00C6:  BRA    00C4
00C8:  BSF    F93.1
00CA:  BTFSS  F81.1
00CC:  BRA    00CA
00CE:  BTFSC  F81.0
00D0:  BSF    FD8.0
00D2:  BTFSS  F81.0
00D4:  BCF    FD8.0
00D6:  RLCF   01,F
00D8:  MOVLW  07
00DA:  MOVWF  00
00DC:  DECFSZ 00,F
00DE:  BRA    00DC
00E0:  BCF    F93.1
00E2:  BCF    F8A.1
00E4:  DECFSZ x62,F
00E6:  BRA    00BE
00E8:  BSF    F93.0
00EA:  MOVLW  07
00EC:  MOVWF  00
00EE:  DECFSZ 00,F
00F0:  BRA    00EE
00F2:  BCF    F8A.0
00F4:  MOVF   x63,W
00F6:  BTFSS  FD8.2
00F8:  BCF    F93.0
00FA:  NOP   
00FC:  BSF    F93.1
00FE:  BTFSS  F81.1
0100:  BRA    00FE
0102:  MOVLW  07
0104:  MOVWF  00
0106:  DECFSZ 00,F
0108:  BRA    0106
010A:  BCF    F8A.1
010C:  BCF    F93.1
010E:  MOVLW  07
0110:  MOVWF  00
0112:  DECFSZ 00,F
0114:  BRA    0112
0116:  BCF    F8A.0
0118:  BCF    F93.0
011A:  RETLW  00
.................... #include <stdio.h> 
.................... /////////////////////////////////////////////////////////////////////////// 
.................... ////        (C) Copyright 1996,2003 Custom Computer Services           //// 
.................... //// This source code may only be used by licensed users of the CCS C  //// 
.................... //// compiler.  This source code may only be distributed to other      //// 
.................... //// licensed users of the CCS C compiler.  No other use, reproduction //// 
.................... //// or distribution is permitted without written permission.          //// 
.................... //// Derivative programs created using this software in object code    //// 
.................... //// form are not restricted in any way.                               //// 
.................... /////////////////////////////////////////////////////////////////////////// 
....................  
.................... #ifndef _STDIO 
.................... #define _STDIO 
.................... #include <string.h> 
.................... //////////////////////////////////////////////////////////////////////////// 
.................... ////        (C) Copyright 1996,2008 Custom Computer Services            //// 
.................... //// This source code may only be used by licensed users of the CCS C   //// 
.................... //// compiler.  This source code may only be distributed to other       //// 
.................... //// licensed users of the CCS C compiler.  No other use, reproduction  //// 
.................... //// or distribution is permitted without written permission.           //// 
.................... //// Derivative programs created using this software in object code     //// 
.................... //// form are not restricted in any way.                                //// 
.................... //////////////////////////////////////////////////////////////////////////// 
....................  
.................... #ifndef _STRING 
.................... #define _STRING 
.................... #include <stddef.h> 
.................... /////////////////////////////////////////////////////////////////////////// 
.................... ////        (C) Copyright 1996,2003 Custom Computer Services           //// 
.................... //// This source code may only be used by licensed users of the CCS C  //// 
.................... //// compiler.  This source code may only be distributed to other      //// 
.................... //// licensed users of the CCS C compiler.  No other use, reproduction //// 
.................... //// or distribution is permitted without written permission.          //// 
.................... //// Derivative programs created using this software in object code    //// 
.................... //// form are not restricted in any way.                               //// 
.................... /////////////////////////////////////////////////////////////////////////// 
....................  
.................... #ifndef _STDDEF 
....................  
.................... #define _STDDEF 
....................  
.................... #if sizeof(unsigned int8 *)==1 
.................... #define ptrdiff_t unsigned int8 
.................... #else 
.................... #define ptrdiff_t unsigned int16 
.................... #endif 
....................  
.................... #define size_t unsigned int8 
.................... #define wchar_t char 
.................... #define NULL 0 
....................  
.................... #define offsetof(s,f) (offsetofbit(s,f)/8) 
....................  
.................... #endif 
....................  
.................... #include <ctype.h> 
.................... //////////////////////////////////////////////////////////////////////////// 
.................... ////        (C) Copyright 1996,2003 Custom Computer Services            //// 
.................... //// This source code may only be used by licensed users of the CCS C   //// 
.................... //// compiler.  This source code may only be distributed to other       //// 
.................... //// licensed users of the CCS C compiler.  No other use, reproduction  //// 
.................... //// or distribution is permitted without written permission.           //// 
.................... //// Derivative programs created using this software in object code     //// 
.................... //// form are not restricted in any way.                                //// 
.................... //////////////////////////////////////////////////////////////////////////// 
....................  
.................... #ifndef _CTYPE 
.................... #define _CTYPE 
....................  
.................... #define islower(x)  isamong(x,"abcdefghijklmnopqrstuvwxyz") 
.................... #define isupper(x)  isamong(x,"ABCDEFGHIJKLMNOPQRSTUVWXYZ") 
.................... #define isalnum(x)  isamong(x,"0123456789ABCDEFGHIJKLMNOPQRSTUVWXYZabcdefghijklmnopqrstuvwxyz") 
.................... #define isalpha(x)  isamong(x,"ABCDEFGHIJKLMNOPQRSTUVWXYZabcdefghijklmnopqrstuvwxyz") 
.................... #define isdigit(x)  isamong(x,"0123456789") 
.................... #define isspace(x)  ((x)==' ') 
.................... #define isxdigit(x) isamong(x,"0123456789ABCDEFabcdef") 
.................... #define iscntrl(x)  ((x)<' ') 
.................... #define isprint(x)  ((x)>=' ') 
.................... #define isgraph(x)  ((x)>' ') 
.................... #define ispunct(x)  (((x)>' ')&&!isalnum(x)) 
....................  
.................... #endif 
....................  
....................  
....................  
....................  
....................  
.................... ////////////////////////////////////////////// 
.................... //// Uncomment the following define to    //// 
.................... //// allow some functions to use a        //// 
.................... //// quicker algorithm, but use more ROM  //// 
.................... ////                                      //// 
.................... //// #define FASTER_BUT_MORE_ROM          //// 
.................... ////////////////////////////////////////////// 
....................  
....................  
....................  
.................... /*Copying functions*/ 
.................... /* standard template: 
....................    void *memmove(void *s1, void *s2, size_t n). 
....................    Copies max of n characters safely (not following ending '\0') 
....................    from s2 in s1; if s2 has less than n characters, appends 0 */ 
....................  
.................... char *memmove(void *s1,char *s2,size_t n) 
.................... { 
....................    char *sc1; 
....................    char *sc2; 
....................    sc1=s1; 
....................    sc2=s2; 
....................    if(sc2<sc1 && sc1 <sc2 +n) 
....................       for(sc1+=n,sc2+=n;0<n;--n) 
....................          *--sc1=*--sc2; 
....................    else 
....................       for(;0<n;--n) 
....................          *sc1++=*sc2++; 
....................   return s1; 
....................   } 
....................  
.................... /* Standard template: char *strcpy(char *s1, const char *s2) 
....................    copies the string s2 including the null character to s1. 
....................    This is a compiler built in to handle the different address 
....................    spaces */ 
....................  
.................... #define strcopy strcpy 
....................  
.................... /* standard template: 
....................    char *strncpy(char *s1, const char *s2, size_t n). 
....................    Copies max of n characters (not following ending '\0') 
....................    from s2 in s1; if s2 has less than n characters, appends 0 */ 
....................  
.................... char *strncpy(char *s1, char *s2, size_t n) 
.................... { 
....................   char *s; 
....................  
....................   for (s = s1; n > 0 && *s2 != '\0'; n--) 
....................      *s++ = *s2++; 
....................   for (; n > 0; n--) 
....................      *s++ = '\0'; 
....................  
....................   return(s1); 
.................... } 
.................... /***********************************************************/ 
....................  
.................... /*concatenation functions*/ 
.................... /* standard template: char *strcat(char *s1, const char *s2) 
.................... appends s2 to s1*/ 
....................  
.................... char *strcat(char *s1, char *s2) 
.................... { 
....................    char *s; 
....................  
....................    for (s = s1; *s != '\0'; ++s); 
....................    while(*s2 != '\0') 
....................    { 
....................       *s = *s2; 
....................       ++s; 
....................       ++s2; 
....................    } 
....................  
....................    *s = '\0'; 
....................    return(s1); 
.................... } 
.................... /* standard template: char *strncat(char *s1, char *s2,size_t n) 
.................... appends not more than n characters from s2 to s1*/ 
....................  
.................... char *strncat(char *s1, char *s2, size_t n) 
.................... { 
....................    char *s; 
....................  
....................    for (s = s1; *s != '\0'; ++s); 
....................    while(*s2 != '\0' && 0<n) 
....................    { 
....................       *s = *s2; 
....................       ++s; 
....................       ++s2; 
....................       --n; 
....................    } 
....................  
....................    *s = '\0'; 
....................    return(s1); 
.................... } 
....................  
.................... /***********************************************************/ 
....................  
....................  
.................... /*comparison functions*/ 
.................... /* standard template: signed int memcmp(void *s1, void *s2). 
....................    Compares s1 & s2; returns -1 if s1<s2, 0 if s1=s2, 1 if s1>s2 */ 
....................  
.................... signed int8 memcmp(void * s1,char *s2,size_t n) 
.................... { 
.................... char *su1, *su2; 
.................... for(su1=s1, su2=s2; 0<n; ++su1, ++su2, --n) 
.................... { 
....................    if(*su1!=*su2) 
....................       return ((*su1<*su2)?-1:+1); 
.................... } 
.................... return 0; 
.................... } 
....................  
.................... /* standard template: int strcmp(const char *s1, const char *s2). 
....................    Compares s1 & s2; returns -1 if s1<s2, 0 if s1=s2, 1 if s1>s2 */ 
....................  
.................... signed int8 strcmp(char *s1, char *s2) 
.................... { 
....................    for (; *s1 == *s2; s1++, s2++) 
....................       if (*s1 == '\0') 
....................          return(0); 
....................    return((*s1 < *s2) ? -1: 1); 
.................... } 
.................... /* standard template: int strcoll(const char *s1, const char *s2). 
....................    Compares s1 & s2; returns -1 if s1<s2, 0 if s1=s2, 1 if s1>s2 */ 
....................  
.................... signed int8 strcoll(char *s1, char *s2) 
.................... { 
....................    for (; *s1 == *s2; s1++, s2++) 
....................       if (*s1 == '\0') 
....................          return(0); 
....................    return((*s1 < *s2) ? -1: 1); 
.................... } 
....................  
.................... /* standard template: 
....................    int strncmp(const char *s1, const char *s2, size_t n). 
....................    Compares max of n characters (not following 0) from s1 to s2; 
....................    returns same as strcmp */ 
....................  
.................... signed int8 strncmp(char *s1, char *s2, size_t n) 
.................... { 
....................    for (; n > 0; s1++, s2++, n--) 
....................       if (*s1 != *s2) 
....................          return((*s1 <*s2) ? -1: 1); 
....................       else if (*s1 == '\0') 
....................          return(0); 
....................    return(0); 
.................... } 
.................... /* standard template: 
....................    int strxfrm(const char *s1, const char *s2, size_t n). 
....................    transforms maximum of n characters from s2 and places them into s1*/ 
.................... size_t strxfrm(char *s1, char *s2, size_t n) 
.................... { 
....................   char *s; 
....................   unsigned int8 n1; 
....................   n1=n; 
....................   for (s = s1; n > 0 && *s2 != '\0'; n--) 
....................      *s++ = *s2++; 
....................   for (; n > 0; n--) 
....................      *s++ = '\0'; 
....................  
....................   return(n1); 
.................... } 
....................  
....................  
....................  
....................  
....................  
.................... /***********************************************************/ 
.................... /*Search functions*/ 
.................... /* standard template: void *memchr(const char *s, int c). 
....................    Finds first occurrence of c in n characters of s */ 
....................  
.................... char *memchr(void *s,unsigned int8 c,size_t n) 
.................... { 
....................    char uc; 
....................    char *su; 
....................    uc=c; 
....................    for(su=s;0<n;++su,--n) 
....................       if(*su==uc) 
....................       return su; 
....................    return NULL; 
.................... } 
....................  
.................... /* standard template: char *strchr(const char *s, int c). 
....................    Finds first occurrence of c in s */ 
....................  
.................... char *strchr(char *s, unsigned int8 c) 
.................... { 
....................    for (; *s != c; s++) 
....................       if (*s == '\0') 
....................          return(0); 
....................    return(s); 
.................... } 
.................... /* standard template: 
....................    size_t strcspn(const char *s1, const char *s2). 
....................    Computes length of max initial segment of s1 that 
....................    consists entirely of characters NOT from s2*/ 
....................  
.................... unsigned int8  strcspn(char *s1, char *s2) 
.................... { 
....................    char *sc1, *sc2; 
....................  
....................    for (sc1 = s1; *sc1 != 0; sc1++) 
....................       for (sc2 = s2; *sc2 != 0; sc2++) 
....................          if (*sc1 == *sc2) 
....................             return(sc1 - s1); 
....................    return(sc1 - s1); 
.................... } 
.................... /* standard template: 
....................    char *strpbrk(const char *s1, const char *s2). 
....................    Locates first occurence of any character from s2 in s1; 
....................    returns s1 if s2 is empty string */ 
....................  
.................... char *strpbrk(char *s1, char *s2) 
.................... { 
....................    char *sc1, *sc2; 
....................  
....................    for (sc1 = s1; *sc1 != 0; sc1++) 
....................       for (sc2 = s2; *sc2 != 0; sc2++) 
....................          if (*sc1 == *sc2) 
....................             return(sc1); 
....................    return(0); 
.................... } 
....................  
....................  
.................... /* standard template: char *strrchr(const char *s, int c). 
....................    Finds last occurrence of c in s */ 
....................  
.................... char *strrchr(char *s, unsigned int8 c) 
.................... { 
....................    char *p; 
....................  
....................    for (p = 0; ; s++) 
....................    { 
....................       if (*s == c) 
....................          p = s; 
....................       if (*s == '\0') 
....................          return(p); 
....................    } 
.................... } 
.................... /* computes length of max initial segment of s1 consisting 
....................    entirely of characters from s2 */ 
....................  
.................... unsigned int8  strspn(char *s1, char *s2) 
.................... { 
....................    char *sc1, *sc2; 
....................  
....................    for (sc1 = s1; *sc1 != 0; sc1++) 
....................       for (sc2 = s2; ; sc2++) 
....................     if (*sc2 == '\0') 
....................        return(sc1 - s1); 
....................          else if (*sc1 == *sc2) 
....................             break; 
....................    return(sc1 - s1); 
.................... } 
.................... /* standard template: 
....................    char *strstr(const char *s1, const char *s2); 
....................    Locates first occurence of character sequence s2 in s1; 
....................    returns 0 if s2 is empty string 
....................  
....................    Uncomment #define FASTER_BUT_MORE_ROM at the top of the 
....................    file to use the faster algorithm */ 
.................... char *strstr(char *s1, char *s2) 
.................... { 
....................    char *s, *t; 
....................  
....................    #ifdef FASTER_BUT_MORE_ROM 
....................    if (*s2 == '\0') 
....................          return(s1); 
....................    #endif 
....................  
....................    while (*s1) 
....................    { 
....................       for(s = s1, t = s2; *t && (*s == *t); ++s, ++t); 
....................  
....................       if (*t == '\0') 
....................          return s1; 
....................       ++s1; 
....................       #ifdef FASTER_BUT_MORE_ROM 
....................          while(*s1 != '\0' && *s1 != *s2) 
....................             ++s1; 
....................       #endif 
....................    } 
....................    return 0; 
.................... } 
....................  
.................... /* standard template: char *strtok(char *s1, const char *s2). 
....................  
....................    Finds next token in s1 delimited by a character from separator 
....................    string s2 (which can be different from call to call).  First call 
....................    starts at beginning of s1 searching for first character NOT 
....................    contained in s2; returns 0 if none is found. 
....................    If one is found, it is the start of first token (return value). 
....................    Function then searches from there for a character contained in s2. 
....................    If none is found, current token extends to end of s1, and subsequent 
....................    searches for a token will return 0.  If one is found, it is 
....................    overwritten by '\0', which terminates current token.  Function saves 
....................    pointer to following character from which next search will start. 
....................    Each subsequent call, with 0 as first argument, starts searching 
....................    from saved pointer */ 
....................  
.................... char *strtok(char *s1, char *s2) 
.................... { 
....................    char *beg, *end; 
....................    static char *save; 
....................  
....................    beg = (s1)? s1: save; 
....................    beg += strspn(beg, s2); 
....................    if (*beg == '\0') 
....................    { 
....................       *save = ' '; 
....................       return(0); 
....................    } 
....................    end = strpbrk(beg, s2); 
....................    if (*end != '\0') 
....................    { 
....................       *end = '\0'; 
....................       end++; 
....................    } 
....................    save = end; 
....................    return(beg); 
.................... } 
....................  
.................... /*****************************************************************/ 
.................... /*Miscellaneous functions*/ 
.................... /* standard template 
.................... maps error number in errnum to an error message string 
.................... Returns: Pointer to string 
.................... */ 
.................... #ifdef _ERRNO 
.................... char * strerror(unsigned int8 errnum) 
.................... { 
.................... char s[15]; 
.................... switch( errnum) 
.................... { 
.................... case 0: 
....................    strcpy(s,"no errors"); 
....................    return s; 
.................... case EDOM : 
....................    strcpy(s,"domain error"); 
....................    return s; 
.................... case ERANGE: 
....................    strcpy(s,"range error"); 
....................    return s; 
.................... } 
.................... } 
.................... #ENDIF 
.................... /* standard template: size_t strlen(const char *s). 
....................    Computes length of s1 (preceding terminating 0) */ 
....................  
.................... unsigned int8 strlen(char *s) 
.................... { 
....................    char *sc; 
....................  
....................    for (sc = s; *sc != 0; sc++); 
....................    return(sc - s); 
.................... } 
....................  
.................... /* standard template: size_t stricmp(const char *s1, const char *s2). 
....................    Compares s1 to s2 ignoring case (upper vs. lower) */ 
....................  
.................... signed int8 stricmp(char *s1, char *s2) 
.................... { 
....................  for(; *s1==*s2||(isalpha(*s1)&&isalpha(*s2)&&(*s1==*s2+32||*s2==*s1+32)); 
....................     s1++, s2++) 
....................     if (*s1 == '\0') 
....................        return(0); 
....................  return((*s1 < *s2) ? -1: 1); 
.................... } 
....................  
....................  
.................... /* standard template: char *strlwr(char *s). 
....................    Replaces uppercase letters by lowercase; 
....................    returns pointer to new string s */ 
....................  
.................... char *strlwr(char *s) 
.................... { 
....................    char *p; 
....................  
....................    for (p = s; *p != '\0'; p++) 
....................       if (*p >= 'A' && *p <='Z') 
....................          *p += 'a' - 'A'; 
....................    return(s); 
.................... } 
....................  
....................  
.................... /************************************************************/ 
....................  
....................  
.................... #endif 
....................  
.................... #ifndef getc 
.................... #define getc getch 
.................... #define getchar getch 
.................... #define puts(s) {printf(s); putchar(13); putchar(10);} 
.................... #define putc putchar 
.................... #endif 
.................... /* maps error number to an error message. Writes a sequence of characters to 
.................... stderr stream thus: if s is not null then string pointed to by s follwed by 
.................... a colon (:) and a space and the appropriate error message returned by strerror 
.................... function with argument errno 
....................  
.................... Returns: no value 
.................... */ 
....................  
.................... #ifdef _ERRNO 
.................... void perror(char *s) 
.................... { 
....................   if(s) 
....................   fprintf(STDERR,"%s: ",s); 
....................   fprintf(STDERR,"%s\r\n",strerror(errno)); 
.................... } 
.................... #endif 
.................... #endif 
....................  
.................... //#include <stdlib.h> 
.................... #include <string.h> 
.................... //////////////////////////////////////////////////////////////////////////// 
.................... ////        (C) Copyright 1996,2008 Custom Computer Services            //// 
.................... //// This source code may only be used by licensed users of the CCS C   //// 
.................... //// compiler.  This source code may only be distributed to other       //// 
.................... //// licensed users of the CCS C compiler.  No other use, reproduction  //// 
.................... //// or distribution is permitted without written permission.           //// 
.................... //// Derivative programs created using this software in object code     //// 
.................... //// form are not restricted in any way.                                //// 
.................... //////////////////////////////////////////////////////////////////////////// 
....................  
.................... #ifndef _STRING 
.................... #define _STRING 
.................... #include <stddef.h> 
.................... #include <ctype.h> 
....................  
....................  
....................  
.................... ////////////////////////////////////////////// 
.................... //// Uncomment the following define to    //// 
.................... //// allow some functions to use a        //// 
.................... //// quicker algorithm, but use more ROM  //// 
.................... ////                                      //// 
.................... //// #define FASTER_BUT_MORE_ROM          //// 
.................... ////////////////////////////////////////////// 
....................  
....................  
....................  
.................... /*Copying functions*/ 
.................... /* standard template: 
....................    void *memmove(void *s1, void *s2, size_t n). 
....................    Copies max of n characters safely (not following ending '\0') 
....................    from s2 in s1; if s2 has less than n characters, appends 0 */ 
....................  
.................... char *memmove(void *s1,char *s2,size_t n) 
.................... { 
....................    char *sc1; 
....................    char *sc2; 
....................    sc1=s1; 
....................    sc2=s2; 
....................    if(sc2<sc1 && sc1 <sc2 +n) 
....................       for(sc1+=n,sc2+=n;0<n;--n) 
....................          *--sc1=*--sc2; 
....................    else 
....................       for(;0<n;--n) 
....................          *sc1++=*sc2++; 
....................   return s1; 
....................   } 
....................  
.................... /* Standard template: char *strcpy(char *s1, const char *s2) 
....................    copies the string s2 including the null character to s1. 
....................    This is a compiler built in to handle the different address 
....................    spaces */ 
....................  
.................... #define strcopy strcpy 
....................  
.................... /* standard template: 
....................    char *strncpy(char *s1, const char *s2, size_t n). 
....................    Copies max of n characters (not following ending '\0') 
....................    from s2 in s1; if s2 has less than n characters, appends 0 */ 
....................  
.................... char *strncpy(char *s1, char *s2, size_t n) 
.................... { 
....................   char *s; 
....................  
....................   for (s = s1; n > 0 && *s2 != '\0'; n--) 
....................      *s++ = *s2++; 
....................   for (; n > 0; n--) 
....................      *s++ = '\0'; 
....................  
....................   return(s1); 
.................... } 
.................... /***********************************************************/ 
....................  
.................... /*concatenation functions*/ 
.................... /* standard template: char *strcat(char *s1, const char *s2) 
.................... appends s2 to s1*/ 
....................  
.................... char *strcat(char *s1, char *s2) 
.................... { 
....................    char *s; 
....................  
....................    for (s = s1; *s != '\0'; ++s); 
....................    while(*s2 != '\0') 
....................    { 
....................       *s = *s2; 
....................       ++s; 
....................       ++s2; 
....................    } 
....................  
....................    *s = '\0'; 
....................    return(s1); 
.................... } 
.................... /* standard template: char *strncat(char *s1, char *s2,size_t n) 
.................... appends not more than n characters from s2 to s1*/ 
....................  
.................... char *strncat(char *s1, char *s2, size_t n) 
.................... { 
....................    char *s; 
....................  
....................    for (s = s1; *s != '\0'; ++s); 
....................    while(*s2 != '\0' && 0<n) 
....................    { 
....................       *s = *s2; 
....................       ++s; 
....................       ++s2; 
....................       --n; 
....................    } 
....................  
....................    *s = '\0'; 
....................    return(s1); 
.................... } 
....................  
.................... /***********************************************************/ 
....................  
....................  
.................... /*comparison functions*/ 
.................... /* standard template: signed int memcmp(void *s1, void *s2). 
....................    Compares s1 & s2; returns -1 if s1<s2, 0 if s1=s2, 1 if s1>s2 */ 
....................  
.................... signed int8 memcmp(void * s1,char *s2,size_t n) 
.................... { 
.................... char *su1, *su2; 
.................... for(su1=s1, su2=s2; 0<n; ++su1, ++su2, --n) 
.................... { 
....................    if(*su1!=*su2) 
....................       return ((*su1<*su2)?-1:+1); 
.................... } 
.................... return 0; 
.................... } 
....................  
.................... /* standard template: int strcmp(const char *s1, const char *s2). 
....................    Compares s1 & s2; returns -1 if s1<s2, 0 if s1=s2, 1 if s1>s2 */ 
....................  
.................... signed int8 strcmp(char *s1, char *s2) 
.................... { 
....................    for (; *s1 == *s2; s1++, s2++) 
....................       if (*s1 == '\0') 
....................          return(0); 
....................    return((*s1 < *s2) ? -1: 1); 
.................... } 
.................... /* standard template: int strcoll(const char *s1, const char *s2). 
....................    Compares s1 & s2; returns -1 if s1<s2, 0 if s1=s2, 1 if s1>s2 */ 
....................  
.................... signed int8 strcoll(char *s1, char *s2) 
.................... { 
....................    for (; *s1 == *s2; s1++, s2++) 
....................       if (*s1 == '\0') 
....................          return(0); 
....................    return((*s1 < *s2) ? -1: 1); 
.................... } 
....................  
.................... /* standard template: 
....................    int strncmp(const char *s1, const char *s2, size_t n). 
....................    Compares max of n characters (not following 0) from s1 to s2; 
....................    returns same as strcmp */ 
....................  
.................... signed int8 strncmp(char *s1, char *s2, size_t n) 
.................... { 
....................    for (; n > 0; s1++, s2++, n--) 
....................       if (*s1 != *s2) 
....................          return((*s1 <*s2) ? -1: 1); 
....................       else if (*s1 == '\0') 
....................          return(0); 
....................    return(0); 
.................... } 
.................... /* standard template: 
....................    int strxfrm(const char *s1, const char *s2, size_t n). 
....................    transforms maximum of n characters from s2 and places them into s1*/ 
.................... size_t strxfrm(char *s1, char *s2, size_t n) 
.................... { 
....................   char *s; 
....................   unsigned int8 n1; 
....................   n1=n; 
....................   for (s = s1; n > 0 && *s2 != '\0'; n--) 
....................      *s++ = *s2++; 
....................   for (; n > 0; n--) 
....................      *s++ = '\0'; 
....................  
....................   return(n1); 
.................... } 
....................  
....................  
....................  
....................  
....................  
.................... /***********************************************************/ 
.................... /*Search functions*/ 
.................... /* standard template: void *memchr(const char *s, int c). 
....................    Finds first occurrence of c in n characters of s */ 
....................  
.................... char *memchr(void *s,unsigned int8 c,size_t n) 
.................... { 
....................    char uc; 
....................    char *su; 
....................    uc=c; 
....................    for(su=s;0<n;++su,--n) 
....................       if(*su==uc) 
....................       return su; 
....................    return NULL; 
.................... } 
....................  
.................... /* standard template: char *strchr(const char *s, int c). 
....................    Finds first occurrence of c in s */ 
....................  
.................... char *strchr(char *s, unsigned int8 c) 
.................... { 
....................    for (; *s != c; s++) 
....................       if (*s == '\0') 
....................          return(0); 
....................    return(s); 
.................... } 
.................... /* standard template: 
....................    size_t strcspn(const char *s1, const char *s2). 
....................    Computes length of max initial segment of s1 that 
....................    consists entirely of characters NOT from s2*/ 
....................  
.................... unsigned int8  strcspn(char *s1, char *s2) 
.................... { 
....................    char *sc1, *sc2; 
....................  
....................    for (sc1 = s1; *sc1 != 0; sc1++) 
....................       for (sc2 = s2; *sc2 != 0; sc2++) 
....................          if (*sc1 == *sc2) 
....................             return(sc1 - s1); 
....................    return(sc1 - s1); 
.................... } 
.................... /* standard template: 
....................    char *strpbrk(const char *s1, const char *s2). 
....................    Locates first occurence of any character from s2 in s1; 
....................    returns s1 if s2 is empty string */ 
....................  
.................... char *strpbrk(char *s1, char *s2) 
.................... { 
....................    char *sc1, *sc2; 
....................  
....................    for (sc1 = s1; *sc1 != 0; sc1++) 
....................       for (sc2 = s2; *sc2 != 0; sc2++) 
....................          if (*sc1 == *sc2) 
....................             return(sc1); 
....................    return(0); 
.................... } 
....................  
....................  
.................... /* standard template: char *strrchr(const char *s, int c). 
....................    Finds last occurrence of c in s */ 
....................  
.................... char *strrchr(char *s, unsigned int8 c) 
.................... { 
....................    char *p; 
....................  
....................    for (p = 0; ; s++) 
....................    { 
....................       if (*s == c) 
....................          p = s; 
....................       if (*s == '\0') 
....................          return(p); 
....................    } 
.................... } 
.................... /* computes length of max initial segment of s1 consisting 
....................    entirely of characters from s2 */ 
....................  
.................... unsigned int8  strspn(char *s1, char *s2) 
.................... { 
....................    char *sc1, *sc2; 
....................  
....................    for (sc1 = s1; *sc1 != 0; sc1++) 
....................       for (sc2 = s2; ; sc2++) 
....................     if (*sc2 == '\0') 
....................        return(sc1 - s1); 
....................          else if (*sc1 == *sc2) 
....................             break; 
....................    return(sc1 - s1); 
.................... } 
.................... /* standard template: 
....................    char *strstr(const char *s1, const char *s2); 
....................    Locates first occurence of character sequence s2 in s1; 
....................    returns 0 if s2 is empty string 
....................  
....................    Uncomment #define FASTER_BUT_MORE_ROM at the top of the 
....................    file to use the faster algorithm */ 
.................... char *strstr(char *s1, char *s2) 
.................... { 
....................    char *s, *t; 
....................  
....................    #ifdef FASTER_BUT_MORE_ROM 
....................    if (*s2 == '\0') 
....................          return(s1); 
....................    #endif 
....................  
....................    while (*s1) 
....................    { 
....................       for(s = s1, t = s2; *t && (*s == *t); ++s, ++t); 
....................  
....................       if (*t == '\0') 
....................          return s1; 
....................       ++s1; 
....................       #ifdef FASTER_BUT_MORE_ROM 
....................          while(*s1 != '\0' && *s1 != *s2) 
....................             ++s1; 
....................       #endif 
....................    } 
....................    return 0; 
.................... } 
....................  
.................... /* standard template: char *strtok(char *s1, const char *s2). 
....................  
....................    Finds next token in s1 delimited by a character from separator 
....................    string s2 (which can be different from call to call).  First call 
....................    starts at beginning of s1 searching for first character NOT 
....................    contained in s2; returns 0 if none is found. 
....................    If one is found, it is the start of first token (return value). 
....................    Function then searches from there for a character contained in s2. 
....................    If none is found, current token extends to end of s1, and subsequent 
....................    searches for a token will return 0.  If one is found, it is 
....................    overwritten by '\0', which terminates current token.  Function saves 
....................    pointer to following character from which next search will start. 
....................    Each subsequent call, with 0 as first argument, starts searching 
....................    from saved pointer */ 
....................  
.................... char *strtok(char *s1, char *s2) 
.................... { 
....................    char *beg, *end; 
....................    static char *save; 
....................  
....................    beg = (s1)? s1: save; 
....................    beg += strspn(beg, s2); 
....................    if (*beg == '\0') 
....................    { 
....................       *save = ' '; 
....................       return(0); 
....................    } 
....................    end = strpbrk(beg, s2); 
....................    if (*end != '\0') 
....................    { 
....................       *end = '\0'; 
....................       end++; 
....................    } 
....................    save = end; 
....................    return(beg); 
.................... } 
....................  
.................... /*****************************************************************/ 
.................... /*Miscellaneous functions*/ 
.................... /* standard template 
.................... maps error number in errnum to an error message string 
.................... Returns: Pointer to string 
.................... */ 
.................... #ifdef _ERRNO 
.................... char * strerror(unsigned int8 errnum) 
.................... { 
.................... char s[15]; 
.................... switch( errnum) 
.................... { 
.................... case 0: 
....................    strcpy(s,"no errors"); 
....................    return s; 
.................... case EDOM : 
....................    strcpy(s,"domain error"); 
....................    return s; 
.................... case ERANGE: 
....................    strcpy(s,"range error"); 
....................    return s; 
.................... } 
.................... } 
.................... #ENDIF 
.................... /* standard template: size_t strlen(const char *s). 
....................    Computes length of s1 (preceding terminating 0) */ 
....................  
.................... unsigned int8 strlen(char *s) 
.................... { 
....................    char *sc; 
....................  
....................    for (sc = s; *sc != 0; sc++); 
....................    return(sc - s); 
.................... } 
....................  
.................... /* standard template: size_t stricmp(const char *s1, const char *s2). 
....................    Compares s1 to s2 ignoring case (upper vs. lower) */ 
....................  
.................... signed int8 stricmp(char *s1, char *s2) 
.................... { 
....................  for(; *s1==*s2||(isalpha(*s1)&&isalpha(*s2)&&(*s1==*s2+32||*s2==*s1+32)); 
....................     s1++, s2++) 
....................     if (*s1 == '\0') 
....................        return(0); 
....................  return((*s1 < *s2) ? -1: 1); 
.................... } 
....................  
....................  
.................... /* standard template: char *strlwr(char *s). 
....................    Replaces uppercase letters by lowercase; 
....................    returns pointer to new string s */ 
....................  
.................... char *strlwr(char *s) 
.................... { 
....................    char *p; 
....................  
....................    for (p = s; *p != '\0'; p++) 
....................       if (*p >= 'A' && *p <='Z') 
....................          *p += 'a' - 'A'; 
....................    return(s); 
.................... } 
....................  
....................  
.................... /************************************************************/ 
....................  
....................  
.................... #endif 
....................  
.................... #endif 
....................  
.................... #include "comunicacion.h" 
.................... #ifndef COMUNICACION_H 
.................... #define COMUNICACION_H 
.................... #define USB_OK	0 
.................... #define USB_NO_ENUMERATED 1 
.................... #define USB_NO_ATTACHED -1 
....................  
.................... int8 COM_init(); 
.................... int8 COM_sense(); 
.................... int8 COM_send(char* buffer, unsigned int8 leng, unsigned short wait = 1); 
.................... int8 COM_send(char* buffer, unsigned int8 leng); 
.................... int8 COM_recive(char* buffer, unsigned int8 leng); 
.................... #endif 
....................  
.................... #include "accelerometro.h" 
....................  
.................... #ifndef ACCELEROMETRO_H 
....................  
.................... #define ACCELEROMETRO_H 
....................  
.................... #define MMA7455_XOUTL 0x00      // Read only, Output Value X LSB 
.................... #define MMA7455_XOUTH 0x01      // Read only, Output Value X MSB 
.................... #define MMA7455_YOUTL 0x02      // Read only, Output Value Y LSB 
.................... #define MMA7455_YOUTH 0x03      // Read only, Output Value Y MSB 
.................... #define MMA7455_ZOUTL 0x04      // Read only, Output Value Z LSB 
.................... #define MMA7455_ZOUTH 0x05      // Read only, Output Value Z MSB 
.................... #define MMA7455_XOUT8 0x06      // Read only, Output Value X 8 bits 
.................... #define MMA7455_YOUT8 0x07      // Read only, Output Value Y 8 bits 
.................... #define MMA7455_ZOUT8 0x08      // Read only, Output Value Z 8 bits 
.................... #define MMA7455_STATUS 0x09     // Read only, Status Register 
.................... #define MMA7455_DETSRC 0x0A     // Read only, Detection Source Register 
.................... #define MMA7455_TOUT 0x0B       // Temperature Output Value (Optional) 
.................... #define MMA7455_RESERVED1 0x0C  // Reserved 
.................... #define MMA7455_I2CAD 0x0D      // Read/Write, I2C Device Address 
.................... #define MMA7455_USRINF 0x0E     // Read only, User Information (Optional) 
.................... #define MMA7455_WHOAMI 0x0F     // Read only, "Who am I" value (Optional) 
.................... #define MMA7455_XOFFL 0x10      // Read/Write, Offset Drift X LSB 
.................... #define MMA7455_XOFFH 0x11      // Read/Write, Offset Drift X MSB 
.................... #define MMA7455_YOFFL 0x12      // Read/Write, Offset Drift Y LSB 
.................... #define MMA7455_YOFFH 0x13      // Read/Write, Offset Drift Y MSB 
.................... #define MMA7455_ZOFFL 0x14      // Read/Write, Offset Drift Z LSB 
.................... #define MMA7455_ZOFFH 0x15      // Read/Write, Offset Drift Z MSB 
.................... #define MMA7455_MCTL 0x16       // Read/Write, Mode Control Register 
.................... #define MMA7455_INTRST 0x17     // Read/Write, Interrupt Latch Reset 
.................... #define MMA7455_CTL1 0x18       // Read/Write, Control 1 Register 
.................... #define MMA7455_CTL2 0x19       // Read/Write, Control 2 Register 
.................... #define MMA7455_LDTH 0x1A       // Read/Write, Level Detection Threshold Limit Value 
.................... #define MMA7455_PDTH 0x1B       // Read/Write, Pulse Detection Threshold Limit Value 
.................... #define MMA7455_PD 0x1C         // Read/Write, Pulse Duration Value 
.................... #define MMA7455_LT 0x1D         // Read/Write, Latency Time Value (between pulses) 
.................... #define MMA7455_TW 0x1E         // Read/Write, Time Window for Second Pulse Value 
.................... #define MMA7455_RESERVED2 0x1F  // Reserved 
....................  
.................... // Defines for the bits, to be able to change  
.................... // between bit number and binary definition. 
.................... // By using the bit number, programming the MMA7455  
.................... // is like programming an AVR microcontroller. 
.................... // But instead of using "(1<<X)", or "_BV(X)",  
.................... // the Arduino "bit(X)" is used. 
.................... #define MMA7455_D0 0x01 //0 
.................... #define MMA7455_D1 0x02 //1 
.................... #define MMA7455_D2 0x04 //2 
.................... #define MMA7455_D3 0x08 //3 
.................... #define MMA7455_D4 0x10 //4 
.................... #define MMA7455_D5 0x20 //5 
.................... #define MMA7455_D6 0x40 //6 
.................... #define MMA7455_D7 0x80 //7 
....................  
.................... // Status Register 
.................... #define MMA7455_DRDY MMA7455_D0 
.................... #define MMA7455_DOVR MMA7455_D1 
.................... #define MMA7455_PERR MMA7455_D2 
....................  
.................... // Mode Control Register 
.................... #define MMA7455_MODE0 MMA7455_D0 
.................... #define MMA7455_MODE1 MMA7455_D1 
.................... #define MMA7455_GLVL0 MMA7455_D2 
.................... #define MMA7455_GLVL1 MMA7455_D3 
.................... #define MMA7455_STON MMA7455_D4 
.................... #define MMA7455_SPI3W MMA7455_D5 
.................... #define MMA7455_DRPD MMA7455_D6 
....................  
.................... // Control 1 Register 
.................... #define MMA7455_INTPIN MMA7455_D0 
.................... #define MMA7455_INTREG0 MMA7455_D1 
.................... #define MMA7455_INTREG1 MMA7455_D2 
.................... #define MMA7455_XDA MMA7455_D3 
.................... #define MMA7455_YDA MMA7455_D4 
.................... #define MMA7455_ZDA MMA7455_D5 
.................... #define MMA7455_THOPT MMA7455_D6 
.................... #define MMA7455_DFBW MMA7455_D7 
....................  
.................... // Control 2 Register 
.................... #define MMA7455_LDPL MMA7455_D0 
.................... #define MMA7455_PDPL MMA7455_D1 
.................... #define MMA7455_DRVO MMA7455_D2 
....................  
.................... // Interrupt Latch Reset Register 
.................... #define MMA7455_CLR_INT1 MMA7455_D0 
.................... #define MMA7455_CLR_INT2 MMA7455_D1 
....................  
.................... // Detection Source Register 
.................... #define MMA7455_INT1 MMA7455_D0 
.................... #define MMA7455_INT2 MMA7455_D1 
.................... #define MMA7455_PDZ MMA7455_D2 
.................... #define MMA7455_PDY MMA7455_D3 
.................... #define MMA7455_PDX MMA7455_D4 
.................... #define MMA7455_LDZ MMA7455_D5 
.................... #define MMA7455_LDY MMA7455_D6 
.................... #define MMA7455_LDX MMA7455_D7 
....................  
.................... // I2C Device Address Register 
.................... #define MMA7455_I2CDIS MMA7455_D7 
....................  
.................... // Default I2C address for the MMA7455 
.................... #define MMA7455_I2C_ADDRESS 0x1D 
.................... //#define MMA7455_I2C_ADDRESS_READ 0X3B 
.................... #define MMA7455_I2C_ADDRESS_READ 0XA1 
.................... //#define MMA7455_I2C_ADDRESS_WRITE 0X3A 
.................... #define MMA7455_I2C_ADDRESS_WRITE 0XA0 
....................  
.................... // When using an union for the registers and 
.................... // the axis values, the byte order of the accelerometer 
.................... // should match the byte order of the compiler and AVR chip. 
.................... // Both have the lower byte at the lower address, 
.................... // so they match. 
.................... // This union is only used by the low level functions. 
.................... typedef union  
.................... { 
....................   struct 
....................   { 
....................     unsigned int8 x_lsb; 
....................     unsigned int8 x_msb; 
....................     unsigned int8 y_lsb; 
....................     unsigned int8 y_msb; 
....................     unsigned int8 z_lsb; 
....................     unsigned int8 z_msb; 
....................   } reg; 
....................   struct 
....................   { 
....................     int x; 
....................     int y; 
....................     int z; 
....................   } value; 
.................... } xyz_union; 
....................  
.................... typedef struct  
.................... { 
....................    /* data */ 
....................    unsigned int8 MODE_CONTROL; 
....................    unsigned int8 CONTROL_1; 
....................    unsigned int8 CONTROL_2; 
....................  
....................    int8 XOFFL; 
....................    int8 XOFFH; 
....................    int8 YOFFL; 
....................    int8 YOFFH; 
....................    int8 ZOFFL; 
....................    int8 ZOFFH;/*,//no implemntado 
....................    char _LEVEL_DETECTION_THREHOLDS; 
....................    char _PULSE_DETECTION_THREHOLDS; 
....................    char _PULSE_DURATION; 
....................    char _LANTENCY_TIME; 
....................    char _TIME_WINDOWS; 
....................    */ 
.................... } CONFIG_MMA7455; 
....................  
.................... //configuracion incial del MMA7455 
.................... int init_MMA(void); 
....................  
.................... //recalibra el offset del MMA7455 
.................... int calibrate_MMA(void); 
....................  
.................... //cambio de configuracion del MMA7455 
.................... void set_config(*CONFIG_MMA7455); 
....................  
.................... //Lectura de los valores de x y z 
.................... int xyz_MMA( int *pX, int *pY, int *pZ); 
....................  
.................... //Lectura de datosd desde el MMA7455 
.................... int read_MMA(unsigned char address, int8 *value); 
.................... int read_MMA(unsigned char start_address, int8 *buffer,int size); 
....................  
.................... //Escritura de datos en el MMA7455 
.................... int write_MMA(unsigned char address, int8 *value); 
.................... int write_MMA(unsigned char start_address, int8 *pData, int size); 
....................  
.................... #define testmma 
.................... #ifdef testmma 
.................... int1 ext_eeprom_ready(); 
.................... #endif 
.................... #endif 
....................  
.................... /* 
.................... DEFINICIONES: 
.................... MOV = deteccion de movimiento 
.................... CL = deteccion de caida libre 
....................  
.................... Initialize the sensor 
.................... Sensitivity: 
....................   2g : GLVL0 
....................   4g : GLVL1 
....................   8g : GLVL1 | GLVL0 
.................... Mode: 
....................   Standby         : 0 
....................   Measurement     : MODE0 
....................   Level Detection : MODE1 
....................   Pulse Detection : MODE1 | MODE0 
....................  
.................... tabla 1: configuracion de INTRG 
.................... ------------------------ 
.................... INT2TRG      INT1   INT2 
.................... 00         LD       PD 
.................... 01         PD       LD 
.................... 10         sPD     dPD 
.................... ------------------------ 
....................  
.................... tabla2: configuracion de pines de interrupciones 
.................... ------------------- 
.................... INTPIN 
.................... 0       INT1bit  --> INT1pin, INT2bit  --> INT2pin 
.................... 1       INT1bit  --> INT2pin, INT2bit  --> INT1pin 
.................... ------------------- 
.................... */ 
....................  
.................... #include "analogo_digital.h" 
.................... #ifndef ANALOGO_DIGITAL_H 
.................... #define ANALOGO_DIGITAL_H 
....................  
....................  
.................... #ifndef CANAL_VELOCIDAD 
.................... 	#define CANAL_VELOCIDAD 0 
.................... #endif 
.................... #ifndef CANAL_ACCELERACION 
.................... 	#define CANAL_ACCELERACION 1 
.................... #endif 
.................... #ifndef CANAL_REVOLUCIONES 
.................... 	#define CANAL_REVOLUCIONES 2 
.................... #endif 
....................  
.................... int AD_init_adc(); 
.................... int AD_leer_canal(int canal, int16 *buffer); 
.................... #endif 
....................  
.................... #include "captura_frecuencia.h" 
.................... #ifndef CAPTURA_FRECUENCIA 
.................... #define CAPTURA_FRECUENCIA 
.................... //canales de lectura 
.................... #define CANAL_1 1 
.................... #define CANAL_2 2 
....................  
.................... int CP_init_ccp(); 
.................... int CP_leer_ccp(int canal, int32 *buffer); 
.................... #endif 
....................  
.................... #include "memoria.h" 
.................... #ifndef MEMORIA_H 
.................... #define MEMORIA_H 
....................  
.................... #define MAX_BUFFER 		100 
....................  
.................... #define INI_HW	0 
.................... #define INI_SW	1 
.................... #define OPEN	2 
.................... #define RD		3 
.................... #define GET		4 
.................... #define WR		5 
.................... #define SET		6 
.................... #define CLOSE	7 
....................  
.................... #define MEMORIA_CMD_AUTOBAUD	0x55 
.................... #define MEMORIA_CMD_VER_INFO	0x56 
.................... #define MEMORIA_CMD_FAT_PROTECT	0x59 
.................... #define MEMORIA_CMD_INITIALIZE	0x69 
....................  
.................... #define MEMORIA_EXT_CMD			0x40 
.................... #define MEMORIA_CMD_READ_FILE	0x61 
.................... #define MEMORIA_CMD_WRITE_FILE	0x74 
....................  
.................... #define MEMORIA_FAT_VALUE	0x08 
....................  
.................... #define MEMORIA_ACK 		0x06 
.................... #define MEMORIA_NOACK		0x15 
....................  
.................... #define MEMORIA_ON 			0x01 
.................... #define MEMORIA_OFF 		0x00 
....................  
.................... #define MEMORIA_NAME_LENG_LIMIT	12 
.................... #define MEMORIA_NAME_TERMINATOR 0x00 
.................... #define MEMORIA_DELIMITADOR 	0x0a 
....................  
.................... #define MEMORIA_NO_APPEND 	0X00 
.................... #define MEMORIA_APPEND 		0X80 
....................  
.................... #define MEMORIA_NO_HANDSHAKING 		0x00 
.................... #define MEMORIA_DEFAULT_HANDSHAKING 0X01 
.................... #define MEMORIA_MAX_HANDSHAKING		0x32 
....................  
.................... #define MEMORIA_HIGH_PERFORMANCE 	0x00 
.................... #define MEMORIA_LOW_PERFORMANCE 	0x40 
.................... //#define MEMORIA_OUT_TIME	65535	//modificar para colocar tiempos mas largos 
.................... //#define MEMORIA_COMPROBAR_ARCHIVO 
....................  
.................... int MEMORIA_reset(void); 
.................... int MEMORIA_init_hw(void); 
.................... int MEMORIA_init(void); 
.................... int MEMORIA_open(char *filename, char modo); 
.................... int MEMORIA_cancel(void); 
.................... int MEMORIA_write(unsigned int size); 
.................... int MEMORIA_set_data(char *data, unsigned int size); 
.................... char MEMORIA_putc(char c); 
.................... unsigned int32 MEMORIA_read(unsigned int num_bytes); 
.................... int MEMORIA_get_data(char *buffer); 
.................... int MEMORIA_close(void); 
.................... int MEMORIA_is_busy(void); 
.................... char MEMORIA_getc(void); 
.................... #endif 
....................  
.................... #include "ds1307.h" 
.................... /////////////////////////////////////////////////////////////////////////////////////// 
.................... ///                               DS1307.C                                           /// 
.................... ///                     Driver for Real Time Clock                                   /// 
.................... ///                     modified by Redpic 08/2006                                   /// 
.................... ///                  http://picmania.garcia-cuervo.com                               /// 
.................... ///                                                                                  /// 
.................... /// void ds1307_init(val)                                                            /// 
.................... ///                  - Enable oscillator without clearing the seconds register       /// 
.................... ///                    used when PIC loses power and DS1307 run from 3V BAT          /// 
.................... ///                  - Config Control Register with next parameters:                 /// 
.................... ///                     DS1307_ALL_DISABLED          All disabled                    /// 
.................... ///                     DS1307_OUT_ON_DISABLED_HIHG  Out to Hight on Disable Out     /// 
.................... ///                     DS1307_OUT_ENABLED           Out Enabled                     /// 
.................... ///                     DS1307_OUT_1_HZ              Freq. Out to 1 Hz               /// 
.................... ///                     DS1307_OUT_4_KHZ             Freq. Out to 4.096 Khz          /// 
.................... ///                     DS1307_OUT_8_KHZ             Freq. Out to 8.192 Khz          /// 
.................... ///                     DS1307_OUT_32_KHZ            Freq. Out to 32.768 Khz         /// 
.................... ///                                                                                  /// 
.................... ///                     Example init:                                                /// 
.................... ///                     ds1307_init(DS1307_ALL_DISABLED);                            /// 
.................... ///                     ds1307_init(DS1307_OUT_ENABLED | DS1307_OUT_1_HZ);           /// 
.................... ///                                                                                  /// 
.................... /// void ds1307_set_date_time(day,mth,year,dow,hour,min,sec) - Set the date/time     /// 
.................... ///                                                                                  /// 
.................... /// void ds1307_get_date(day,mth,year,dow)                   - Get the date          /// 
.................... ///                                                                                  /// 
.................... /// void ds1307_get_time(hr,min,sec)                         - Get the time          /// 
.................... ///                                                                                  /// 
.................... /// char ds1307_read_nvram_byte(char addr)                   - Read byte in address  /// 
.................... ///                                                                                  /// 
.................... /// void ds1307_write_nvram_byte(char addr, char value)      - Write byte in address /// 
.................... ///                                                                                  /// 
.................... /// void ds1307_get_day_of_week(char* ptr)                   - Get string Day Of Week/// 
.................... ///                                                                                  /// 
.................... /// If defined USE_INTERRUPTS all functions disable Global Interrupts on starts and  /// 
.................... ///                           enable Global on ends else usar can do it hiself       /// 
.................... ///                                                                                  /// 
.................... /////////////////////////////////////////////////////////////////////////////////////// 
....................  
.................... #ifndef DS1307_H 
.................... #define DS1307_H 
....................  
.................... #ifndef RTC_SDA 
.................... #define RTC_SDA  PIN_B0 
.................... #define RTC_SCL  PIN_B1 
.................... #endif 
....................  
.................... #define DS1307_ALL_DISABLED         0b00000000 // All disabled 
.................... #define DS1307_OUT_ON_DISABLED_HIHG 0b10000000 // Out to Hight on Disable Out 
.................... #define DS1307_OUT_ENABLED          0b00010000 // Out Enabled 
.................... #define DS1307_OUT_1_HZ             0b00000000 // Freq. Out to 1 Hz 
.................... #define DS1307_OUT_4_KHZ            0b00000001 // Freq. Out to 4.096 Khz 
.................... #define DS1307_OUT_8_KHZ            0b00000010 // Freq. Out to 8.192 Khz 
.................... #define DS1307_OUT_32_KHZ           0b00000011 // Freq. Out to 32.768 Khz 
....................  
.................... #define Start_user_address_nvram    0x08 
.................... #define End_user_address_nvram      0x3f 
....................  
....................  
.................... void ds1307_init(int val); 
.................... void ds1307_set_date_time(byte day, byte mth, byte year, byte dow, byte hr, byte min, byte sec); 
.................... void ds1307_get_date(byte &day, byte &mth, byte &year, byte &dow); 
.................... void ds1307_get_time(byte &hr, byte &min, byte &sec); 
.................... char ds1307_read_nvram_byte(char addr); 
.................... void ds1307_write_nvram_byte(char addr, char value); 
.................... void ds1307_get_day_of_week(char* ptr); 
.................... #endif 
....................  
.................... #include "utilidades.h" 
.................... #ifndef UTILIDADES_H 
.................... #define UTILIDADES_H 
....................  
.................... int16 calc_CRC(char *buffer, unsigned int8 leng); 
....................  
.................... #endif 
....................  
....................  
....................  
.................... #define MAX 20; 
.................... //extern CONFIG_MMA7455 CONFIG; 
.................... //extern unsigned int32 tiempo_inicial, tiempo_final; 
.................... void setup_devices(){ 
*
03C6:  MOVLW  FF
03C8:  MOVWF  5E
....................    int error = -1; 
....................    /////////////configuracion del MMA7455//////////////// 
....................    //error = init_MMA(); 
....................    ////////////////////////////////////////////////////// 
....................    error = AD_init_adc(); 
03CA:  BRA    002C
03CC:  MOVFF  01,5E
....................    ////////////////////////////////////////////////////// 
....................    //error = CP_init_ccp(); 
....................    ////////////////////////////////////////////////////// 
....................    //error = MEMORIA_init(); 
....................    ////////////////////////////////////////////////////// 
....................    ds1307_init(DS1307_OUT_ENABLED | DS1307_OUT_1_HZ); 
03D0:  MOVLW  10
03D2:  MOVWF  5F
03D4:  BRA    0168
....................    ////////////////////////////////////////////////////// 
....................    ////////////////////////////////////////////////////// 
....................    //error = COM_init(); 
....................    ////////////////////////////////////////////////////// 
....................    setup_psp(PSP_DISABLED); 
03D6:  BCF    F96.4
....................    setup_wdt(WDT_OFF); 
03D8:  BCF    FD1.0
....................    setup_timer_0(RTCC_INTERNAL); 
03DA:  MOVLW  80
03DC:  MOVWF  FD5
....................    setup_timer_1(T1_DISABLED); 
03DE:  CLRF   FCD
....................    setup_timer_2(T2_DISABLED,0,1); 
03E0:  MOVLW  00
03E2:  MOVWF  FCA
03E4:  MOVLW  00
03E6:  MOVWF  FCB
....................    //setup_timer_3(T3_DISABLED|T3_DIV_BY_1); 
....................    //setup_ccp1(CCP_OFF); 
....................    setup_comparator(NC_NC_NC_NC); 
03E8:  MOVLW  07
03EA:  MOVWF  FB4
03EC:  MOVF   F92,W
03EE:  MOVWF  F92
03F0:  MOVLW  13
03F2:  MOVWF  00
03F4:  DECFSZ 00,F
03F6:  BRA    03F4
03F8:  BRA    03FA
03FA:  MOVF   FB4,W
03FC:  BCF    FA1.6
....................    setup_vref(FALSE); 
03FE:  CLRF   FB5
....................    printf("usb error =%d\n\r", error); 
0400:  MOVLW  04
0402:  MOVWF  FF6
0404:  MOVLW  00
0406:  MOVWF  FF7
0408:  MOVLW  0B
040A:  MOVWF  5F
040C:  RCALL  02AC
040E:  MOVFF  5E,5F
0412:  MOVLW  1F
0414:  MOVWF  x60
0416:  BRA    02F4
0418:  MOVLW  0A
041A:  BTFSS  F9E.4
041C:  BRA    041A
041E:  MOVWF  FAD
0420:  MOVLW  0D
0422:  BTFSS  F9E.4
0424:  BRA    0422
0426:  MOVWF  FAD
....................    return; 
.................... } 
0428:  GOTO   071C (RETURN)
....................  
.................... void main() 
.................... { 
*
05EE:  CLRF   FF8
05F0:  BCF    FD0.7
05F2:  CLRF   FEA
05F4:  CLRF   FE9
05F6:  BSF    FB8.3
05F8:  MOVLW  70
05FA:  MOVWF  FAF
05FC:  MOVLW  02
05FE:  MOVWF  FB0
0600:  MOVLW  A6
0602:  MOVWF  FAC
0604:  MOVLW  90
0606:  MOVWF  FAB
0608:  MOVF   FC1,W
060A:  ANDLW  C0
060C:  IORLW  0F
060E:  MOVWF  FC1
0610:  MOVLW  07
0612:  MOVWF  FB4
0614:  CLRF   04
0616:  CLRF   05
0618:  CLRF   06
061A:  CLRF   07
061C:  CLRF   08
061E:  CLRF   09
0620:  MOVLW  4C
0622:  MOVWF  0A
0624:  MOVLW  75
0626:  MOVWF  0B
0628:  MOVLW  6E
062A:  MOVWF  0C
062C:  MOVLW  65
062E:  MOVWF  0D
0630:  MOVLW  73
0632:  MOVWF  0E
0634:  CLRF   0F
0636:  CLRF   10
0638:  CLRF   11
063A:  CLRF   12
063C:  CLRF   13
063E:  CLRF   14
0640:  MOVLW  4D
0642:  MOVWF  15
0644:  MOVLW  61
0646:  MOVWF  16
0648:  MOVLW  72
064A:  MOVWF  17
064C:  MOVLW  74
064E:  MOVWF  18
0650:  MOVLW  65
0652:  MOVWF  19
0654:  MOVLW  73
0656:  MOVWF  1A
0658:  CLRF   1B
065A:  CLRF   1C
065C:  CLRF   1D
065E:  CLRF   1E
0660:  CLRF   1F
0662:  MOVLW  4D
0664:  MOVWF  20
0666:  MOVLW  69
0668:  MOVWF  21
066A:  MOVLW  E9
066C:  MOVWF  22
066E:  MOVLW  72
0670:  MOVWF  23
0672:  MOVLW  63
0674:  MOVWF  24
0676:  MOVLW  6F
0678:  MOVWF  25
067A:  MOVLW  6C
067C:  MOVWF  26
067E:  MOVLW  65
0680:  MOVWF  27
0682:  MOVLW  73
0684:  MOVWF  28
0686:  CLRF   29
0688:  CLRF   2A
068A:  MOVLW  4A
068C:  MOVWF  2B
068E:  MOVLW  75
0690:  MOVWF  2C
0692:  MOVLW  65
0694:  MOVWF  2D
0696:  MOVLW  76
0698:  MOVWF  2E
069A:  MOVLW  65
069C:  MOVWF  2F
069E:  MOVLW  73
06A0:  MOVWF  30
06A2:  CLRF   31
06A4:  CLRF   32
06A6:  CLRF   33
06A8:  CLRF   34
06AA:  CLRF   35
06AC:  MOVLW  56
06AE:  MOVWF  36
06B0:  MOVLW  69
06B2:  MOVWF  37
06B4:  MOVLW  65
06B6:  MOVWF  38
06B8:  MOVLW  72
06BA:  MOVWF  39
06BC:  MOVLW  6E
06BE:  MOVWF  3A
06C0:  MOVLW  65
06C2:  MOVWF  3B
06C4:  MOVLW  73
06C6:  MOVWF  3C
06C8:  CLRF   3D
06CA:  CLRF   3E
06CC:  CLRF   3F
06CE:  CLRF   40
06D0:  MOVLW  53
06D2:  MOVWF  41
06D4:  MOVLW  E1
06D6:  MOVWF  42
06D8:  MOVLW  62
06DA:  MOVWF  43
06DC:  MOVLW  61
06DE:  MOVWF  44
06E0:  MOVLW  64
06E2:  MOVWF  45
06E4:  MOVLW  6F
06E6:  MOVWF  46
06E8:  CLRF   47
06EA:  CLRF   48
06EC:  CLRF   49
06EE:  CLRF   4A
06F0:  CLRF   4B
06F2:  MOVLW  44
06F4:  MOVWF  4C
06F6:  MOVLW  6F
06F8:  MOVWF  4D
06FA:  MOVLW  6D
06FC:  MOVWF  4E
06FE:  MOVLW  69
0700:  MOVWF  4F
0702:  MOVLW  6E
0704:  MOVWF  50
0706:  MOVLW  67
0708:  MOVWF  51
070A:  MOVLW  6F
070C:  MOVWF  52
070E:  CLRF   53
0710:  CLRF   54
0712:  CLRF   57
0714:  CLRF   58
0716:  CLRF   5A
0718:  CLRF   59
....................    //char* mensaje = "hola mundo\n\r"; 
....................    int16 value = 0; 
....................    byte hr, min, sec; 
....................    setup_devices(); 
071A:  BRA    03C6
....................    //ds1307_set_date_time(0x0c, 0x0a, 0x0c, 0x01, 0x0a, 0x28, 0x00); 
....................    while(1){ 
....................       /* 
....................       if(COM_sense() != USB_NO_ATTACHED){ 
....................          COM_send(mensaje, strlen(mensaje)); 
....................          printf("%s", mensaje); 
....................       }else 
....................          printf("esperando a conectar....\n\r"); 
....................       */ 
....................       ds1307_get_time(hr, min, sec); 
....................       AD_leer_canal(CANAL_VELOCIDAD, &value); 
*
07DE:  CLRF   5E
07E0:  CLRF   x60
07E2:  MOVLW  59
07E4:  MOVWF  5F
07E6:  BRA    042C
....................       printf("%u/%u/%u lectura: %Ld\n\r",hr,min,sec, value);    
07E8:  MOVFF  5B,5E
07EC:  MOVLW  1B
07EE:  MOVWF  5F
07F0:  RCALL  047A
07F2:  MOVLW  2F
07F4:  BTFSS  F9E.4
07F6:  BRA    07F4
07F8:  MOVWF  FAD
07FA:  MOVFF  5C,5E
07FE:  MOVLW  1B
0800:  MOVWF  5F
0802:  RCALL  047A
0804:  MOVLW  2F
0806:  BTFSS  F9E.4
0808:  BRA    0806
080A:  MOVWF  FAD
080C:  MOVFF  5D,5E
0810:  MOVLW  1B
0812:  MOVWF  5F
0814:  RCALL  047A
0816:  MOVLW  1C
0818:  MOVWF  FF6
081A:  MOVLW  00
081C:  MOVWF  FF7
081E:  MOVLW  0A
0820:  MOVWF  5F
0822:  RCALL  02AC
0824:  MOVLW  10
0826:  MOVWF  FE9
0828:  MOVFF  5A,5F
082C:  MOVFF  59,5E
0830:  BRA    04E6
0832:  MOVLW  0A
0834:  BTFSS  F9E.4
0836:  BRA    0834
0838:  MOVWF  FAD
083A:  MOVLW  0D
083C:  BTFSS  F9E.4
083E:  BRA    083C
0840:  MOVWF  FAD
....................       delay_ms(500); 
0842:  MOVLW  02
0844:  MOVWF  5E
0846:  MOVLW  FA
0848:  MOVWF  5F
084A:  BRA    05C4
084C:  DECFSZ 5E,F
084E:  BRA    0846
....................    } 
0850:  BRA    071C
.................... } 
....................  
....................  
.................... #include "Nucleo.h" 
.................... /* 
0852:  SLEEP 
.................... configuracione de hardware 
.................... oscilador: 20Mhz. con PLL:activo para dividir por 5 y obtener 4Mhz, aumentarlo a 96Mhz y dividirlo a 48Mhz para la frecuencia del modulo USB; 
.................... frecuencia de la CPU:24 Mhz; el FUSE CPIDIV3 para dividir los 96Mhz hasta 24MHz como frecuencia de entradad de la CPU  
....................  
....................  
.................... */ 
....................  
.................... #ifndef NUCLEO_H 
.................... #define NUCLEO_H 
.................... #include <18F4550.h> 
.................... //////// Standard Header file for the PIC18F4550 device //////////////// 
.................... #device PIC18F4550 
.................... #list 
....................  
.................... #device adc=10 
....................  
.................... /* 
.................... #include <18F4620.h> 
.................... //#include "registros.h" 
.................... #device adc=10 
.................... */ 
....................  
.................... #FUSES NOWDT                 	//No Watch Dog Timer 
.................... #FUSES WDT128                	//Watch Dog Timer uses 1:128 Postscale 
.................... #FUSES HSPLL                  //High speed Osc (> 4mhz for PCM/PCH) (>10mhz for PCD) with PLL enable 
.................... #FUSES NOPROTECT             	//Code not protected from reading 
.................... #FUSES NOBROWNOUT            	//No brownout reset 
.................... #FUSES BORV20                	//Brownout reset at 2.1V 
.................... #FUSES NOPUT                 	//No Power Up Timer 
.................... #FUSES NOCPD                 	//No EE protection 
.................... #FUSES STVREN                	//Stack full/underflow will cause reset 
....................  
.................... #FUSES NODEBUG               	//No Debug mode for ICD 
.................... #FUSES NOLVP                 	//No low voltage prgming, B3(PIC16) or B5(PIC18) used for I/O 
.................... #FUSES NOWRT                 	//Program memory not write protected 
.................... #FUSES NOWRTD                	//Data EEPROM not write protected 
.................... #FUSES IESO                  	//Internal External Switch Over mode enabled 
.................... #FUSES FCMEN                 	//Fail-safe clock monitor enabled 
.................... #FUSES PBADEN                	//PORTB pins are configured as analog input channels on RESET 
.................... #FUSES NOWRTC                	//configuration not registers write protected 
.................... #FUSES NOWRTB                	//Boot block not write protected 
.................... #FUSES NOEBTR                	//Memory not protected from table reads 
....................  
.................... #FUSES NOEBTRB               	//Boot block not protected from table reads 
.................... #FUSES NOCPB                 	//No Boot Block code protection 
.................... #FUSES MCLR                  	//Master Clear pin enabled 
.................... #FUSES LPT1OSC               	//Timer1 configured for low-power operation 
.................... #FUSES NOXINST               	//Extended set extension and Indexed Addressing mode disabled (Legacy mode) 
.................... #FUSES PLL5							//PLL enable div by 5 input Osc 
.................... #FUSES CPUDIV3						//postscaler PLL div by 4                       
.................... #FUSES USBDIV						//enable USBDIV, div output PLL by 2 
.................... #FUSES VREGEN						//internal regulator USB enable 
.................... #FUSES ICPRT						 
.................... #FUSES CCP2C1						//CPP input/output multiplexed whit RC1 
....................  
.................... //cambiar el valor del clock si se cambia la frecuencia de la CPU 
.................... #use delay(clock=24000000) 
.................... #use rs232(baud=9600,parity=N,xmit=PIN_C6,rcv=PIN_C7,bits=8) 
.................... #define PIN_SDA PIN_B0 
.................... #define PIN_SCL PIN_B1 
.................... #use i2c(master, sda= PIN_SDA, scl=PIN_SCL/*, FORCE_HW, RESTART_WDT*/)                    //directiva de compilador para el uso del bus I2C del microcontrolador 
.................... #include <stdio.h> 
.................... /////////////////////////////////////////////////////////////////////////// 
.................... ////        (C) Copyright 1996,2003 Custom Computer Services           //// 
.................... //// This source code may only be used by licensed users of the CCS C  //// 
.................... //// compiler.  This source code may only be distributed to other      //// 
.................... //// licensed users of the CCS C compiler.  No other use, reproduction //// 
.................... //// or distribution is permitted without written permission.          //// 
.................... //// Derivative programs created using this software in object code    //// 
.................... //// form are not restricted in any way.                               //// 
.................... /////////////////////////////////////////////////////////////////////////// 
....................  
.................... #ifndef _STDIO 
.................... #define _STDIO 
.................... #include <string.h> 
.................... //////////////////////////////////////////////////////////////////////////// 
.................... ////        (C) Copyright 1996,2008 Custom Computer Services            //// 
.................... //// This source code may only be used by licensed users of the CCS C   //// 
.................... //// compiler.  This source code may only be distributed to other       //// 
.................... //// licensed users of the CCS C compiler.  No other use, reproduction  //// 
.................... //// or distribution is permitted without written permission.           //// 
.................... //// Derivative programs created using this software in object code     //// 
.................... //// form are not restricted in any way.                                //// 
.................... //////////////////////////////////////////////////////////////////////////// 
....................  
.................... #ifndef _STRING 
.................... #define _STRING 
.................... #include <stddef.h> 
.................... /////////////////////////////////////////////////////////////////////////// 
.................... ////        (C) Copyright 1996,2003 Custom Computer Services           //// 
.................... //// This source code may only be used by licensed users of the CCS C  //// 
.................... //// compiler.  This source code may only be distributed to other      //// 
.................... //// licensed users of the CCS C compiler.  No other use, reproduction //// 
.................... //// or distribution is permitted without written permission.          //// 
.................... //// Derivative programs created using this software in object code    //// 
.................... //// form are not restricted in any way.                               //// 
.................... /////////////////////////////////////////////////////////////////////////// 
....................  
.................... #ifndef _STDDEF 
....................  
.................... #define _STDDEF 
....................  
.................... #if sizeof(unsigned int8 *)==1 
.................... #define ptrdiff_t unsigned int8 
.................... #else 
.................... #define ptrdiff_t unsigned int16 
.................... #endif 
....................  
.................... #define size_t unsigned int8 
.................... #define wchar_t char 
.................... #define NULL 0 
....................  
.................... #define offsetof(s,f) (offsetofbit(s,f)/8) 
....................  
.................... #endif 
....................  
.................... #include <ctype.h> 
.................... //////////////////////////////////////////////////////////////////////////// 
.................... ////        (C) Copyright 1996,2003 Custom Computer Services            //// 
.................... //// This source code may only be used by licensed users of the CCS C   //// 
.................... //// compiler.  This source code may only be distributed to other       //// 
.................... //// licensed users of the CCS C compiler.  No other use, reproduction  //// 
.................... //// or distribution is permitted without written permission.           //// 
.................... //// Derivative programs created using this software in object code     //// 
.................... //// form are not restricted in any way.                                //// 
.................... //////////////////////////////////////////////////////////////////////////// 
....................  
.................... #ifndef _CTYPE 
.................... #define _CTYPE 
....................  
.................... #define islower(x)  isamong(x,"abcdefghijklmnopqrstuvwxyz") 
.................... #define isupper(x)  isamong(x,"ABCDEFGHIJKLMNOPQRSTUVWXYZ") 
.................... #define isalnum(x)  isamong(x,"0123456789ABCDEFGHIJKLMNOPQRSTUVWXYZabcdefghijklmnopqrstuvwxyz") 
.................... #define isalpha(x)  isamong(x,"ABCDEFGHIJKLMNOPQRSTUVWXYZabcdefghijklmnopqrstuvwxyz") 
.................... #define isdigit(x)  isamong(x,"0123456789") 
.................... #define isspace(x)  ((x)==' ') 
.................... #define isxdigit(x) isamong(x,"0123456789ABCDEFabcdef") 
.................... #define iscntrl(x)  ((x)<' ') 
.................... #define isprint(x)  ((x)>=' ') 
.................... #define isgraph(x)  ((x)>' ') 
.................... #define ispunct(x)  (((x)>' ')&&!isalnum(x)) 
....................  
.................... #endif 
....................  
....................  
....................  
....................  
....................  
.................... ////////////////////////////////////////////// 
.................... //// Uncomment the following define to    //// 
.................... //// allow some functions to use a        //// 
.................... //// quicker algorithm, but use more ROM  //// 
.................... ////                                      //// 
.................... //// #define FASTER_BUT_MORE_ROM          //// 
.................... ////////////////////////////////////////////// 
....................  
....................  
....................  
.................... /*Copying functions*/ 
.................... /* standard template: 
....................    void *memmove(void *s1, void *s2, size_t n). 
....................    Copies max of n characters safely (not following ending '\0') 
....................    from s2 in s1; if s2 has less than n characters, appends 0 */ 
....................  
.................... char *memmove(void *s1,char *s2,size_t n) 
.................... { 
....................    char *sc1; 
....................    char *sc2; 
....................    sc1=s1; 
....................    sc2=s2; 
....................    if(sc2<sc1 && sc1 <sc2 +n) 
....................       for(sc1+=n,sc2+=n;0<n;--n) 
....................          *--sc1=*--sc2; 
....................    else 
....................       for(;0<n;--n) 
....................          *sc1++=*sc2++; 
....................   return s1; 
....................   } 
....................  
.................... /* Standard template: char *strcpy(char *s1, const char *s2) 
....................    copies the string s2 including the null character to s1. 
....................    This is a compiler built in to handle the different address 
....................    spaces */ 
....................  
.................... #define strcopy strcpy 
....................  
.................... /* standard template: 
....................    char *strncpy(char *s1, const char *s2, size_t n). 
....................    Copies max of n characters (not following ending '\0') 
....................    from s2 in s1; if s2 has less than n characters, appends 0 */ 
....................  
.................... char *strncpy(char *s1, char *s2, size_t n) 
.................... { 
....................   char *s; 
....................  
....................   for (s = s1; n > 0 && *s2 != '\0'; n--) 
....................      *s++ = *s2++; 
....................   for (; n > 0; n--) 
....................      *s++ = '\0'; 
....................  
....................   return(s1); 
.................... } 
.................... /***********************************************************/ 
....................  
.................... /*concatenation functions*/ 
.................... /* standard template: char *strcat(char *s1, const char *s2) 
.................... appends s2 to s1*/ 
....................  
.................... char *strcat(char *s1, char *s2) 
.................... { 
....................    char *s; 
....................  
....................    for (s = s1; *s != '\0'; ++s); 
....................    while(*s2 != '\0') 
....................    { 
....................       *s = *s2; 
....................       ++s; 
....................       ++s2; 
....................    } 
....................  
....................    *s = '\0'; 
....................    return(s1); 
.................... } 
.................... /* standard template: char *strncat(char *s1, char *s2,size_t n) 
.................... appends not more than n characters from s2 to s1*/ 
....................  
.................... char *strncat(char *s1, char *s2, size_t n) 
.................... { 
....................    char *s; 
....................  
....................    for (s = s1; *s != '\0'; ++s); 
....................    while(*s2 != '\0' && 0<n) 
....................    { 
....................       *s = *s2; 
....................       ++s; 
....................       ++s2; 
....................       --n; 
....................    } 
....................  
....................    *s = '\0'; 
....................    return(s1); 
.................... } 
....................  
.................... /***********************************************************/ 
....................  
....................  
.................... /*comparison functions*/ 
.................... /* standard template: signed int memcmp(void *s1, void *s2). 
....................    Compares s1 & s2; returns -1 if s1<s2, 0 if s1=s2, 1 if s1>s2 */ 
....................  
.................... signed int8 memcmp(void * s1,char *s2,size_t n) 
.................... { 
.................... char *su1, *su2; 
.................... for(su1=s1, su2=s2; 0<n; ++su1, ++su2, --n) 
.................... { 
....................    if(*su1!=*su2) 
....................       return ((*su1<*su2)?-1:+1); 
.................... } 
.................... return 0; 
.................... } 
....................  
.................... /* standard template: int strcmp(const char *s1, const char *s2). 
....................    Compares s1 & s2; returns -1 if s1<s2, 0 if s1=s2, 1 if s1>s2 */ 
....................  
.................... signed int8 strcmp(char *s1, char *s2) 
.................... { 
....................    for (; *s1 == *s2; s1++, s2++) 
....................       if (*s1 == '\0') 
....................          return(0); 
....................    return((*s1 < *s2) ? -1: 1); 
.................... } 
.................... /* standard template: int strcoll(const char *s1, const char *s2). 
....................    Compares s1 & s2; returns -1 if s1<s2, 0 if s1=s2, 1 if s1>s2 */ 
....................  
.................... signed int8 strcoll(char *s1, char *s2) 
.................... { 
....................    for (; *s1 == *s2; s1++, s2++) 
....................       if (*s1 == '\0') 
....................          return(0); 
....................    return((*s1 < *s2) ? -1: 1); 
.................... } 
....................  
.................... /* standard template: 
....................    int strncmp(const char *s1, const char *s2, size_t n). 
....................    Compares max of n characters (not following 0) from s1 to s2; 
....................    returns same as strcmp */ 
....................  
.................... signed int8 strncmp(char *s1, char *s2, size_t n) 
.................... { 
....................    for (; n > 0; s1++, s2++, n--) 
....................       if (*s1 != *s2) 
....................          return((*s1 <*s2) ? -1: 1); 
....................       else if (*s1 == '\0') 
....................          return(0); 
....................    return(0); 
.................... } 
.................... /* standard template: 
....................    int strxfrm(const char *s1, const char *s2, size_t n). 
....................    transforms maximum of n characters from s2 and places them into s1*/ 
.................... size_t strxfrm(char *s1, char *s2, size_t n) 
.................... { 
....................   char *s; 
....................   unsigned int8 n1; 
....................   n1=n; 
....................   for (s = s1; n > 0 && *s2 != '\0'; n--) 
....................      *s++ = *s2++; 
....................   for (; n > 0; n--) 
....................      *s++ = '\0'; 
....................  
....................   return(n1); 
.................... } 
....................  
....................  
....................  
....................  
....................  
.................... /***********************************************************/ 
.................... /*Search functions*/ 
.................... /* standard template: void *memchr(const char *s, int c). 
....................    Finds first occurrence of c in n characters of s */ 
....................  
.................... char *memchr(void *s,unsigned int8 c,size_t n) 
.................... { 
....................    char uc; 
....................    char *su; 
....................    uc=c; 
....................    for(su=s;0<n;++su,--n) 
....................       if(*su==uc) 
....................       return su; 
....................    return NULL; 
.................... } 
....................  
.................... /* standard template: char *strchr(const char *s, int c). 
....................    Finds first occurrence of c in s */ 
....................  
.................... char *strchr(char *s, unsigned int8 c) 
.................... { 
....................    for (; *s != c; s++) 
....................       if (*s == '\0') 
....................          return(0); 
....................    return(s); 
.................... } 
.................... /* standard template: 
....................    size_t strcspn(const char *s1, const char *s2). 
....................    Computes length of max initial segment of s1 that 
....................    consists entirely of characters NOT from s2*/ 
....................  
.................... unsigned int8  strcspn(char *s1, char *s2) 
.................... { 
....................    char *sc1, *sc2; 
....................  
....................    for (sc1 = s1; *sc1 != 0; sc1++) 
....................       for (sc2 = s2; *sc2 != 0; sc2++) 
....................          if (*sc1 == *sc2) 
....................             return(sc1 - s1); 
....................    return(sc1 - s1); 
.................... } 
.................... /* standard template: 
....................    char *strpbrk(const char *s1, const char *s2). 
....................    Locates first occurence of any character from s2 in s1; 
....................    returns s1 if s2 is empty string */ 
....................  
.................... char *strpbrk(char *s1, char *s2) 
.................... { 
....................    char *sc1, *sc2; 
....................  
....................    for (sc1 = s1; *sc1 != 0; sc1++) 
....................       for (sc2 = s2; *sc2 != 0; sc2++) 
....................          if (*sc1 == *sc2) 
....................             return(sc1); 
....................    return(0); 
.................... } 
....................  
....................  
.................... /* standard template: char *strrchr(const char *s, int c). 
....................    Finds last occurrence of c in s */ 
....................  
.................... char *strrchr(char *s, unsigned int8 c) 
.................... { 
....................    char *p; 
....................  
....................    for (p = 0; ; s++) 
....................    { 
....................       if (*s == c) 
....................          p = s; 
....................       if (*s == '\0') 
....................          return(p); 
....................    } 
.................... } 
.................... /* computes length of max initial segment of s1 consisting 
....................    entirely of characters from s2 */ 
....................  
.................... unsigned int8  strspn(char *s1, char *s2) 
.................... { 
....................    char *sc1, *sc2; 
....................  
....................    for (sc1 = s1; *sc1 != 0; sc1++) 
....................       for (sc2 = s2; ; sc2++) 
....................     if (*sc2 == '\0') 
....................        return(sc1 - s1); 
....................          else if (*sc1 == *sc2) 
....................             break; 
....................    return(sc1 - s1); 
.................... } 
.................... /* standard template: 
....................    char *strstr(const char *s1, const char *s2); 
....................    Locates first occurence of character sequence s2 in s1; 
....................    returns 0 if s2 is empty string 
....................  
....................    Uncomment #define FASTER_BUT_MORE_ROM at the top of the 
....................    file to use the faster algorithm */ 
.................... char *strstr(char *s1, char *s2) 
.................... { 
....................    char *s, *t; 
....................  
....................    #ifdef FASTER_BUT_MORE_ROM 
....................    if (*s2 == '\0') 
....................          return(s1); 
....................    #endif 
....................  
....................    while (*s1) 
....................    { 
....................       for(s = s1, t = s2; *t && (*s == *t); ++s, ++t); 
....................  
....................       if (*t == '\0') 
....................          return s1; 
....................       ++s1; 
....................       #ifdef FASTER_BUT_MORE_ROM 
....................          while(*s1 != '\0' && *s1 != *s2) 
....................             ++s1; 
....................       #endif 
....................    } 
....................    return 0; 
.................... } 
....................  
.................... /* standard template: char *strtok(char *s1, const char *s2). 
....................  
....................    Finds next token in s1 delimited by a character from separator 
....................    string s2 (which can be different from call to call).  First call 
....................    starts at beginning of s1 searching for first character NOT 
....................    contained in s2; returns 0 if none is found. 
....................    If one is found, it is the start of first token (return value). 
....................    Function then searches from there for a character contained in s2. 
....................    If none is found, current token extends to end of s1, and subsequent 
....................    searches for a token will return 0.  If one is found, it is 
....................    overwritten by '\0', which terminates current token.  Function saves 
....................    pointer to following character from which next search will start. 
....................    Each subsequent call, with 0 as first argument, starts searching 
....................    from saved pointer */ 
....................  
.................... char *strtok(char *s1, char *s2) 
.................... { 
....................    char *beg, *end; 
....................    static char *save; 
....................  
....................    beg = (s1)? s1: save; 
....................    beg += strspn(beg, s2); 
....................    if (*beg == '\0') 
....................    { 
....................       *save = ' '; 
....................       return(0); 
....................    } 
....................    end = strpbrk(beg, s2); 
....................    if (*end != '\0') 
....................    { 
....................       *end = '\0'; 
....................       end++; 
....................    } 
....................    save = end; 
....................    return(beg); 
.................... } 
....................  
.................... /*****************************************************************/ 
.................... /*Miscellaneous functions*/ 
.................... /* standard template 
.................... maps error number in errnum to an error message string 
.................... Returns: Pointer to string 
.................... */ 
.................... #ifdef _ERRNO 
.................... char * strerror(unsigned int8 errnum) 
.................... { 
.................... char s[15]; 
.................... switch( errnum) 
.................... { 
.................... case 0: 
....................    strcpy(s,"no errors"); 
....................    return s; 
.................... case EDOM : 
....................    strcpy(s,"domain error"); 
....................    return s; 
.................... case ERANGE: 
....................    strcpy(s,"range error"); 
....................    return s; 
.................... } 
.................... } 
.................... #ENDIF 
.................... /* standard template: size_t strlen(const char *s). 
....................    Computes length of s1 (preceding terminating 0) */ 
....................  
.................... unsigned int8 strlen(char *s) 
.................... { 
....................    char *sc; 
....................  
....................    for (sc = s; *sc != 0; sc++); 
....................    return(sc - s); 
.................... } 
....................  
.................... /* standard template: size_t stricmp(const char *s1, const char *s2). 
....................    Compares s1 to s2 ignoring case (upper vs. lower) */ 
....................  
.................... signed int8 stricmp(char *s1, char *s2) 
.................... { 
....................  for(; *s1==*s2||(isalpha(*s1)&&isalpha(*s2)&&(*s1==*s2+32||*s2==*s1+32)); 
....................     s1++, s2++) 
....................     if (*s1 == '\0') 
....................        return(0); 
....................  return((*s1 < *s2) ? -1: 1); 
.................... } 
....................  
....................  
.................... /* standard template: char *strlwr(char *s). 
....................    Replaces uppercase letters by lowercase; 
....................    returns pointer to new string s */ 
....................  
.................... char *strlwr(char *s) 
.................... { 
....................    char *p; 
....................  
....................    for (p = s; *p != '\0'; p++) 
....................       if (*p >= 'A' && *p <='Z') 
....................          *p += 'a' - 'A'; 
....................    return(s); 
.................... } 
....................  
....................  
.................... /************************************************************/ 
....................  
....................  
.................... #endif 
....................  
.................... #ifndef getc 
.................... #define getc getch 
.................... #define getchar getch 
.................... #define puts(s) {printf(s); putchar(13); putchar(10);} 
.................... #define putc putchar 
.................... #endif 
.................... /* maps error number to an error message. Writes a sequence of characters to 
.................... stderr stream thus: if s is not null then string pointed to by s follwed by 
.................... a colon (:) and a space and the appropriate error message returned by strerror 
.................... function with argument errno 
....................  
.................... Returns: no value 
.................... */ 
....................  
.................... #ifdef _ERRNO 
.................... void perror(char *s) 
.................... { 
....................   if(s) 
....................   fprintf(STDERR,"%s: ",s); 
....................   fprintf(STDERR,"%s\r\n",strerror(errno)); 
.................... } 
.................... #endif 
.................... #endif 
....................  
.................... //#include <stdlib.h> 
.................... #include <string.h> 
.................... //////////////////////////////////////////////////////////////////////////// 
.................... ////        (C) Copyright 1996,2008 Custom Computer Services            //// 
.................... //// This source code may only be used by licensed users of the CCS C   //// 
.................... //// compiler.  This source code may only be distributed to other       //// 
.................... //// licensed users of the CCS C compiler.  No other use, reproduction  //// 
.................... //// or distribution is permitted without written permission.           //// 
.................... //// Derivative programs created using this software in object code     //// 
.................... //// form are not restricted in any way.                                //// 
.................... //////////////////////////////////////////////////////////////////////////// 
....................  
.................... #ifndef _STRING 
.................... #define _STRING 
.................... #include <stddef.h> 
.................... #include <ctype.h> 
....................  
....................  
....................  
.................... ////////////////////////////////////////////// 
.................... //// Uncomment the following define to    //// 
.................... //// allow some functions to use a        //// 
.................... //// quicker algorithm, but use more ROM  //// 
.................... ////                                      //// 
.................... //// #define FASTER_BUT_MORE_ROM          //// 
.................... ////////////////////////////////////////////// 
....................  
....................  
....................  
.................... /*Copying functions*/ 
.................... /* standard template: 
....................    void *memmove(void *s1, void *s2, size_t n). 
....................    Copies max of n characters safely (not following ending '\0') 
....................    from s2 in s1; if s2 has less than n characters, appends 0 */ 
....................  
.................... char *memmove(void *s1,char *s2,size_t n) 
.................... { 
....................    char *sc1; 
....................    char *sc2; 
....................    sc1=s1; 
....................    sc2=s2; 
....................    if(sc2<sc1 && sc1 <sc2 +n) 
....................       for(sc1+=n,sc2+=n;0<n;--n) 
....................          *--sc1=*--sc2; 
....................    else 
....................       for(;0<n;--n) 
....................          *sc1++=*sc2++; 
....................   return s1; 
....................   } 
....................  
.................... /* Standard template: char *strcpy(char *s1, const char *s2) 
....................    copies the string s2 including the null character to s1. 
....................    This is a compiler built in to handle the different address 
....................    spaces */ 
....................  
.................... #define strcopy strcpy 
....................  
.................... /* standard template: 
....................    char *strncpy(char *s1, const char *s2, size_t n). 
....................    Copies max of n characters (not following ending '\0') 
....................    from s2 in s1; if s2 has less than n characters, appends 0 */ 
....................  
.................... char *strncpy(char *s1, char *s2, size_t n) 
.................... { 
....................   char *s; 
....................  
....................   for (s = s1; n > 0 && *s2 != '\0'; n--) 
....................      *s++ = *s2++; 
....................   for (; n > 0; n--) 
....................      *s++ = '\0'; 
....................  
....................   return(s1); 
.................... } 
.................... /***********************************************************/ 
....................  
.................... /*concatenation functions*/ 
.................... /* standard template: char *strcat(char *s1, const char *s2) 
.................... appends s2 to s1*/ 
....................  
.................... char *strcat(char *s1, char *s2) 
.................... { 
....................    char *s; 
....................  
....................    for (s = s1; *s != '\0'; ++s); 
....................    while(*s2 != '\0') 
....................    { 
....................       *s = *s2; 
....................       ++s; 
....................       ++s2; 
....................    } 
....................  
....................    *s = '\0'; 
....................    return(s1); 
.................... } 
.................... /* standard template: char *strncat(char *s1, char *s2,size_t n) 
.................... appends not more than n characters from s2 to s1*/ 
....................  
.................... char *strncat(char *s1, char *s2, size_t n) 
.................... { 
....................    char *s; 
....................  
....................    for (s = s1; *s != '\0'; ++s); 
....................    while(*s2 != '\0' && 0<n) 
....................    { 
....................       *s = *s2; 
....................       ++s; 
....................       ++s2; 
....................       --n; 
....................    } 
....................  
....................    *s = '\0'; 
....................    return(s1); 
.................... } 
....................  
.................... /***********************************************************/ 
....................  
....................  
.................... /*comparison functions*/ 
.................... /* standard template: signed int memcmp(void *s1, void *s2). 
....................    Compares s1 & s2; returns -1 if s1<s2, 0 if s1=s2, 1 if s1>s2 */ 
....................  
.................... signed int8 memcmp(void * s1,char *s2,size_t n) 
.................... { 
.................... char *su1, *su2; 
.................... for(su1=s1, su2=s2; 0<n; ++su1, ++su2, --n) 
.................... { 
....................    if(*su1!=*su2) 
....................       return ((*su1<*su2)?-1:+1); 
.................... } 
.................... return 0; 
.................... } 
....................  
.................... /* standard template: int strcmp(const char *s1, const char *s2). 
....................    Compares s1 & s2; returns -1 if s1<s2, 0 if s1=s2, 1 if s1>s2 */ 
....................  
.................... signed int8 strcmp(char *s1, char *s2) 
.................... { 
....................    for (; *s1 == *s2; s1++, s2++) 
....................       if (*s1 == '\0') 
....................          return(0); 
....................    return((*s1 < *s2) ? -1: 1); 
.................... } 
.................... /* standard template: int strcoll(const char *s1, const char *s2). 
....................    Compares s1 & s2; returns -1 if s1<s2, 0 if s1=s2, 1 if s1>s2 */ 
....................  
.................... signed int8 strcoll(char *s1, char *s2) 
.................... { 
....................    for (; *s1 == *s2; s1++, s2++) 
....................       if (*s1 == '\0') 
....................          return(0); 
....................    return((*s1 < *s2) ? -1: 1); 
.................... } 
....................  
.................... /* standard template: 
....................    int strncmp(const char *s1, const char *s2, size_t n). 
....................    Compares max of n characters (not following 0) from s1 to s2; 
....................    returns same as strcmp */ 
....................  
.................... signed int8 strncmp(char *s1, char *s2, size_t n) 
.................... { 
....................    for (; n > 0; s1++, s2++, n--) 
....................       if (*s1 != *s2) 
....................          return((*s1 <*s2) ? -1: 1); 
....................       else if (*s1 == '\0') 
....................          return(0); 
....................    return(0); 
.................... } 
.................... /* standard template: 
....................    int strxfrm(const char *s1, const char *s2, size_t n). 
....................    transforms maximum of n characters from s2 and places them into s1*/ 
.................... size_t strxfrm(char *s1, char *s2, size_t n) 
.................... { 
....................   char *s; 
....................   unsigned int8 n1; 
....................   n1=n; 
....................   for (s = s1; n > 0 && *s2 != '\0'; n--) 
....................      *s++ = *s2++; 
....................   for (; n > 0; n--) 
....................      *s++ = '\0'; 
....................  
....................   return(n1); 
.................... } 
....................  
....................  
....................  
....................  
....................  
.................... /***********************************************************/ 
.................... /*Search functions*/ 
.................... /* standard template: void *memchr(const char *s, int c). 
....................    Finds first occurrence of c in n characters of s */ 
....................  
.................... char *memchr(void *s,unsigned int8 c,size_t n) 
.................... { 
....................    char uc; 
....................    char *su; 
....................    uc=c; 
....................    for(su=s;0<n;++su,--n) 
....................       if(*su==uc) 
....................       return su; 
....................    return NULL; 
.................... } 
....................  
.................... /* standard template: char *strchr(const char *s, int c). 
....................    Finds first occurrence of c in s */ 
....................  
.................... char *strchr(char *s, unsigned int8 c) 
.................... { 
....................    for (; *s != c; s++) 
....................       if (*s == '\0') 
....................          return(0); 
....................    return(s); 
.................... } 
.................... /* standard template: 
....................    size_t strcspn(const char *s1, const char *s2). 
....................    Computes length of max initial segment of s1 that 
....................    consists entirely of characters NOT from s2*/ 
....................  
.................... unsigned int8  strcspn(char *s1, char *s2) 
.................... { 
....................    char *sc1, *sc2; 
....................  
....................    for (sc1 = s1; *sc1 != 0; sc1++) 
....................       for (sc2 = s2; *sc2 != 0; sc2++) 
....................          if (*sc1 == *sc2) 
....................             return(sc1 - s1); 
....................    return(sc1 - s1); 
.................... } 
.................... /* standard template: 
....................    char *strpbrk(const char *s1, const char *s2). 
....................    Locates first occurence of any character from s2 in s1; 
....................    returns s1 if s2 is empty string */ 
....................  
.................... char *strpbrk(char *s1, char *s2) 
.................... { 
....................    char *sc1, *sc2; 
....................  
....................    for (sc1 = s1; *sc1 != 0; sc1++) 
....................       for (sc2 = s2; *sc2 != 0; sc2++) 
....................          if (*sc1 == *sc2) 
....................             return(sc1); 
....................    return(0); 
.................... } 
....................  
....................  
.................... /* standard template: char *strrchr(const char *s, int c). 
....................    Finds last occurrence of c in s */ 
....................  
.................... char *strrchr(char *s, unsigned int8 c) 
.................... { 
....................    char *p; 
....................  
....................    for (p = 0; ; s++) 
....................    { 
....................       if (*s == c) 
....................          p = s; 
....................       if (*s == '\0') 
....................          return(p); 
....................    } 
.................... } 
.................... /* computes length of max initial segment of s1 consisting 
....................    entirely of characters from s2 */ 
....................  
.................... unsigned int8  strspn(char *s1, char *s2) 
.................... { 
....................    char *sc1, *sc2; 
....................  
....................    for (sc1 = s1; *sc1 != 0; sc1++) 
....................       for (sc2 = s2; ; sc2++) 
....................     if (*sc2 == '\0') 
....................        return(sc1 - s1); 
....................          else if (*sc1 == *sc2) 
....................             break; 
....................    return(sc1 - s1); 
.................... } 
.................... /* standard template: 
....................    char *strstr(const char *s1, const char *s2); 
....................    Locates first occurence of character sequence s2 in s1; 
....................    returns 0 if s2 is empty string 
....................  
....................    Uncomment #define FASTER_BUT_MORE_ROM at the top of the 
....................    file to use the faster algorithm */ 
.................... char *strstr(char *s1, char *s2) 
.................... { 
....................    char *s, *t; 
....................  
....................    #ifdef FASTER_BUT_MORE_ROM 
....................    if (*s2 == '\0') 
....................          return(s1); 
....................    #endif 
....................  
....................    while (*s1) 
....................    { 
....................       for(s = s1, t = s2; *t && (*s == *t); ++s, ++t); 
....................  
....................       if (*t == '\0') 
....................          return s1; 
....................       ++s1; 
....................       #ifdef FASTER_BUT_MORE_ROM 
....................          while(*s1 != '\0' && *s1 != *s2) 
....................             ++s1; 
....................       #endif 
....................    } 
....................    return 0; 
.................... } 
....................  
.................... /* standard template: char *strtok(char *s1, const char *s2). 
....................  
....................    Finds next token in s1 delimited by a character from separator 
....................    string s2 (which can be different from call to call).  First call 
....................    starts at beginning of s1 searching for first character NOT 
....................    contained in s2; returns 0 if none is found. 
....................    If one is found, it is the start of first token (return value). 
....................    Function then searches from there for a character contained in s2. 
....................    If none is found, current token extends to end of s1, and subsequent 
....................    searches for a token will return 0.  If one is found, it is 
....................    overwritten by '\0', which terminates current token.  Function saves 
....................    pointer to following character from which next search will start. 
....................    Each subsequent call, with 0 as first argument, starts searching 
....................    from saved pointer */ 
....................  
.................... char *strtok(char *s1, char *s2) 
.................... { 
....................    char *beg, *end; 
....................    static char *save; 
....................  
....................    beg = (s1)? s1: save; 
....................    beg += strspn(beg, s2); 
....................    if (*beg == '\0') 
....................    { 
....................       *save = ' '; 
....................       return(0); 
....................    } 
....................    end = strpbrk(beg, s2); 
....................    if (*end != '\0') 
....................    { 
....................       *end = '\0'; 
....................       end++; 
....................    } 
....................    save = end; 
....................    return(beg); 
.................... } 
....................  
.................... /*****************************************************************/ 
.................... /*Miscellaneous functions*/ 
.................... /* standard template 
.................... maps error number in errnum to an error message string 
.................... Returns: Pointer to string 
.................... */ 
.................... #ifdef _ERRNO 
.................... char * strerror(unsigned int8 errnum) 
.................... { 
.................... char s[15]; 
.................... switch( errnum) 
.................... { 
.................... case 0: 
....................    strcpy(s,"no errors"); 
....................    return s; 
.................... case EDOM : 
....................    strcpy(s,"domain error"); 
....................    return s; 
.................... case ERANGE: 
....................    strcpy(s,"range error"); 
....................    return s; 
.................... } 
.................... } 
.................... #ENDIF 
.................... /* standard template: size_t strlen(const char *s). 
....................    Computes length of s1 (preceding terminating 0) */ 
....................  
.................... unsigned int8 strlen(char *s) 
.................... { 
....................    char *sc; 
....................  
....................    for (sc = s; *sc != 0; sc++); 
....................    return(sc - s); 
.................... } 
....................  
.................... /* standard template: size_t stricmp(const char *s1, const char *s2). 
....................    Compares s1 to s2 ignoring case (upper vs. lower) */ 
....................  
.................... signed int8 stricmp(char *s1, char *s2) 
.................... { 
....................  for(; *s1==*s2||(isalpha(*s1)&&isalpha(*s2)&&(*s1==*s2+32||*s2==*s1+32)); 
....................     s1++, s2++) 
....................     if (*s1 == '\0') 
....................        return(0); 
....................  return((*s1 < *s2) ? -1: 1); 
.................... } 
....................  
....................  
.................... /* standard template: char *strlwr(char *s). 
....................    Replaces uppercase letters by lowercase; 
....................    returns pointer to new string s */ 
....................  
.................... char *strlwr(char *s) 
.................... { 
....................    char *p; 
....................  
....................    for (p = s; *p != '\0'; p++) 
....................       if (*p >= 'A' && *p <='Z') 
....................          *p += 'a' - 'A'; 
....................    return(s); 
.................... } 
....................  
....................  
.................... /************************************************************/ 
....................  
....................  
.................... #endif 
....................  
.................... #endif 
....................  
.................... #include "analogo_digital.h" 
.................... #ifndef ANALOGO_DIGITAL_H 
.................... #define ANALOGO_DIGITAL_H 
....................  
....................  
.................... #ifndef CANAL_VELOCIDAD 
.................... 	#define CANAL_VELOCIDAD 0 
.................... #endif 
.................... #ifndef CANAL_ACCELERACION 
.................... 	#define CANAL_ACCELERACION 1 
.................... #endif 
.................... #ifndef CANAL_REVOLUCIONES 
.................... 	#define CANAL_REVOLUCIONES 2 
.................... #endif 
....................  
.................... int AD_init_adc(); 
.................... int AD_leer_canal(int canal, int16 *buffer); 
.................... #endif 
....................  
....................  
.................... #define ADC_TAD_MUL_2      0x08 
.................... #define ADC_INPUT_PORT	0x07 
.................... int AD_init_adc(){ 
.................... 	setup_adc_ports(AN0_TO_AN2); 
*
002C:  MOVF   FC1,W
002E:  ANDLW  C0
0030:  IORLW  0C
0032:  MOVWF  FC1
....................  
.................... //corregir despues 
.................... /* 
.................... #if (getenv("CLOCK") == 4000000) 
.................... 	setup_adc(ADC_CLOCK_DIV_8|ADC_TAD_MUL_2); 
.................... #elif (getenv("CLOCK") == 8000000) 
.................... 	setup_adc(ADC_CLOCK_DIV_16|ADC_TAD_MUL_2); 
.................... #elif (getenv("CLOCK") == 10000000) 
.................... 	setup_adc(ADC_CLOCK_DIV_32|ADC_TAD_MUL_2); 
.................... #elif (getenv("CLOCK") == 20000000) 
.................... 	setup_adc(ADC_CLOCK_DIV_64|ADC_TAD_MUL_2); 
.................... #else 
.................... 	setup_adc(ADC_CLOCK_DIV_32|ADC_TAD_MUL_2); 
.................... #endif 
.................... */	 
.................... 	setup_adc(ADC_CLOCK_DIV_32|ADC_TAD_MUL_2); 
0034:  BCF    FC0.0
0036:  BSF    FC0.1
0038:  BCF    FC0.2
003A:  BSF    FC0.7
003C:  BSF    FC2.0
.................... 	set_tris_a(ADC_INPUT_PORT);		//RB0 a RB1 entradas 
003E:  MOVLW  07
0040:  MOVWF  F92
.................... 	return 0; 
0042:  MOVLW  00
0044:  MOVWF  01
.................... } 
0046:  GOTO   03CC (RETURN)
....................  
.................... int AD_leer_canal(int canal, int16 *buffer){ 
.................... 	int1 done; 
.................... 	set_adc_channel(canal); 
*
042C:  RLCF   5E,W
042E:  MOVWF  00
0430:  RLCF   00,F
0432:  MOVLW  FC
0434:  ANDWF  00,F
0436:  MOVF   FC2,W
0438:  ANDLW  C3
043A:  IORWF  00,W
043C:  MOVWF  FC2
.................... 	delay_us(10); 
043E:  MOVLW  13
0440:  MOVWF  00
0442:  DECFSZ 00,F
0444:  BRA    0442
0446:  BRA    0448
.................... 	read_adc(ADC_START_ONLY); 
0448:  BSF    FC2.1
.................... 	 
.................... 	do { 
.................... 		done = adc_done(); 
044A:  BCF    x61.0
044C:  BTFSS  FC2.1
044E:  BSF    x61.0
.................... 	}while(!done); 
0450:  BTFSS  x61.0
0452:  BRA    044A
.................... 	*buffer = read_adc(ADC_READ_ONLY); 
0454:  MOVFF  60,03
0458:  MOVFF  5F,FE9
045C:  MOVFF  60,FEA
0460:  BTFSC  FC2.1
0462:  BRA    0460
0464:  MOVFF  FC3,FEF
0468:  MOVFF  FC4,FEC
.................... 	delay_us(1); 
046C:  BRA    046E
046E:  BRA    0470
0470:  BRA    0472
.................... 	return 0; 
0472:  MOVLW  00
0474:  MOVWF  01
.................... } 
0476:  GOTO   07E8 (RETURN)
....................  
.................... #include "Nucleo.h" 
.................... /* 
.................... configuracione de hardware 
.................... oscilador: 20Mhz. con PLL:activo para dividir por 5 y obtener 4Mhz, aumentarlo a 96Mhz y dividirlo a 48Mhz para la frecuencia del modulo USB; 
.................... frecuencia de la CPU:24 Mhz; el FUSE CPIDIV3 para dividir los 96Mhz hasta 24MHz como frecuencia de entradad de la CPU  
....................  
....................  
.................... */ 
....................  
.................... #ifndef NUCLEO_H 
.................... #define NUCLEO_H 
.................... #include <18F4550.h> 
.................... //////// Standard Header file for the PIC18F4550 device //////////////// 
.................... #device PIC18F4550 
.................... #list 
....................  
.................... #device adc=10 
....................  
.................... /* 
.................... #include <18F4620.h> 
.................... //#include "registros.h" 
.................... #device adc=10 
.................... */ 
....................  
.................... #FUSES NOWDT                 	//No Watch Dog Timer 
.................... #FUSES WDT128                	//Watch Dog Timer uses 1:128 Postscale 
.................... #FUSES HSPLL                  //High speed Osc (> 4mhz for PCM/PCH) (>10mhz for PCD) with PLL enable 
.................... #FUSES NOPROTECT             	//Code not protected from reading 
.................... #FUSES NOBROWNOUT            	//No brownout reset 
.................... #FUSES BORV20                	//Brownout reset at 2.1V 
.................... #FUSES NOPUT                 	//No Power Up Timer 
.................... #FUSES NOCPD                 	//No EE protection 
.................... #FUSES STVREN                	//Stack full/underflow will cause reset 
....................  
.................... #FUSES NODEBUG               	//No Debug mode for ICD 
.................... #FUSES NOLVP                 	//No low voltage prgming, B3(PIC16) or B5(PIC18) used for I/O 
.................... #FUSES NOWRT                 	//Program memory not write protected 
.................... #FUSES NOWRTD                	//Data EEPROM not write protected 
.................... #FUSES IESO                  	//Internal External Switch Over mode enabled 
.................... #FUSES FCMEN                 	//Fail-safe clock monitor enabled 
.................... #FUSES PBADEN                	//PORTB pins are configured as analog input channels on RESET 
.................... #FUSES NOWRTC                	//configuration not registers write protected 
.................... #FUSES NOWRTB                	//Boot block not write protected 
.................... #FUSES NOEBTR                	//Memory not protected from table reads 
....................  
.................... #FUSES NOEBTRB               	//Boot block not protected from table reads 
.................... #FUSES NOCPB                 	//No Boot Block code protection 
.................... #FUSES MCLR                  	//Master Clear pin enabled 
.................... #FUSES LPT1OSC               	//Timer1 configured for low-power operation 
.................... #FUSES NOXINST               	//Extended set extension and Indexed Addressing mode disabled (Legacy mode) 
.................... #FUSES PLL5							//PLL enable div by 5 input Osc 
.................... #FUSES CPUDIV3						//postscaler PLL div by 4                       
.................... #FUSES USBDIV						//enable USBDIV, div output PLL by 2 
.................... #FUSES VREGEN						//internal regulator USB enable 
.................... #FUSES ICPRT						 
.................... #FUSES CCP2C1						//CPP input/output multiplexed whit RC1 
....................  
.................... //cambiar el valor del clock si se cambia la frecuencia de la CPU 
.................... #use delay(clock=24000000) 
.................... #use rs232(baud=9600,parity=N,xmit=PIN_C6,rcv=PIN_C7,bits=8) 
.................... #define PIN_SDA PIN_B0 
.................... #define PIN_SCL PIN_B1 
.................... #use i2c(master, sda= PIN_SDA, scl=PIN_SCL/*, FORCE_HW, RESTART_WDT*/)                    //directiva de compilador para el uso del bus I2C del microcontrolador 
.................... #include <stdio.h> 
.................... /////////////////////////////////////////////////////////////////////////// 
.................... ////        (C) Copyright 1996,2003 Custom Computer Services           //// 
.................... //// This source code may only be used by licensed users of the CCS C  //// 
.................... //// compiler.  This source code may only be distributed to other      //// 
.................... //// licensed users of the CCS C compiler.  No other use, reproduction //// 
.................... //// or distribution is permitted without written permission.          //// 
.................... //// Derivative programs created using this software in object code    //// 
.................... //// form are not restricted in any way.                               //// 
.................... /////////////////////////////////////////////////////////////////////////// 
....................  
.................... #ifndef _STDIO 
.................... #define _STDIO 
.................... #include <string.h> 
.................... //////////////////////////////////////////////////////////////////////////// 
.................... ////        (C) Copyright 1996,2008 Custom Computer Services            //// 
.................... //// This source code may only be used by licensed users of the CCS C   //// 
.................... //// compiler.  This source code may only be distributed to other       //// 
.................... //// licensed users of the CCS C compiler.  No other use, reproduction  //// 
.................... //// or distribution is permitted without written permission.           //// 
.................... //// Derivative programs created using this software in object code     //// 
.................... //// form are not restricted in any way.                                //// 
.................... //////////////////////////////////////////////////////////////////////////// 
....................  
.................... #ifndef _STRING 
.................... #define _STRING 
.................... #include <stddef.h> 
.................... /////////////////////////////////////////////////////////////////////////// 
.................... ////        (C) Copyright 1996,2003 Custom Computer Services           //// 
.................... //// This source code may only be used by licensed users of the CCS C  //// 
.................... //// compiler.  This source code may only be distributed to other      //// 
.................... //// licensed users of the CCS C compiler.  No other use, reproduction //// 
.................... //// or distribution is permitted without written permission.          //// 
.................... //// Derivative programs created using this software in object code    //// 
.................... //// form are not restricted in any way.                               //// 
.................... /////////////////////////////////////////////////////////////////////////// 
....................  
.................... #ifndef _STDDEF 
....................  
.................... #define _STDDEF 
....................  
.................... #if sizeof(unsigned int8 *)==1 
.................... #define ptrdiff_t unsigned int8 
.................... #else 
.................... #define ptrdiff_t unsigned int16 
.................... #endif 
....................  
.................... #define size_t unsigned int8 
.................... #define wchar_t char 
.................... #define NULL 0 
....................  
.................... #define offsetof(s,f) (offsetofbit(s,f)/8) 
....................  
.................... #endif 
....................  
.................... #include <ctype.h> 
.................... //////////////////////////////////////////////////////////////////////////// 
.................... ////        (C) Copyright 1996,2003 Custom Computer Services            //// 
.................... //// This source code may only be used by licensed users of the CCS C   //// 
.................... //// compiler.  This source code may only be distributed to other       //// 
.................... //// licensed users of the CCS C compiler.  No other use, reproduction  //// 
.................... //// or distribution is permitted without written permission.           //// 
.................... //// Derivative programs created using this software in object code     //// 
.................... //// form are not restricted in any way.                                //// 
.................... //////////////////////////////////////////////////////////////////////////// 
....................  
.................... #ifndef _CTYPE 
.................... #define _CTYPE 
....................  
.................... #define islower(x)  isamong(x,"abcdefghijklmnopqrstuvwxyz") 
.................... #define isupper(x)  isamong(x,"ABCDEFGHIJKLMNOPQRSTUVWXYZ") 
.................... #define isalnum(x)  isamong(x,"0123456789ABCDEFGHIJKLMNOPQRSTUVWXYZabcdefghijklmnopqrstuvwxyz") 
.................... #define isalpha(x)  isamong(x,"ABCDEFGHIJKLMNOPQRSTUVWXYZabcdefghijklmnopqrstuvwxyz") 
.................... #define isdigit(x)  isamong(x,"0123456789") 
.................... #define isspace(x)  ((x)==' ') 
.................... #define isxdigit(x) isamong(x,"0123456789ABCDEFabcdef") 
.................... #define iscntrl(x)  ((x)<' ') 
.................... #define isprint(x)  ((x)>=' ') 
.................... #define isgraph(x)  ((x)>' ') 
.................... #define ispunct(x)  (((x)>' ')&&!isalnum(x)) 
....................  
.................... #endif 
....................  
....................  
....................  
....................  
....................  
.................... ////////////////////////////////////////////// 
.................... //// Uncomment the following define to    //// 
.................... //// allow some functions to use a        //// 
.................... //// quicker algorithm, but use more ROM  //// 
.................... ////                                      //// 
.................... //// #define FASTER_BUT_MORE_ROM          //// 
.................... ////////////////////////////////////////////// 
....................  
....................  
....................  
.................... /*Copying functions*/ 
.................... /* standard template: 
....................    void *memmove(void *s1, void *s2, size_t n). 
....................    Copies max of n characters safely (not following ending '\0') 
....................    from s2 in s1; if s2 has less than n characters, appends 0 */ 
....................  
.................... char *memmove(void *s1,char *s2,size_t n) 
.................... { 
....................    char *sc1; 
....................    char *sc2; 
....................    sc1=s1; 
....................    sc2=s2; 
....................    if(sc2<sc1 && sc1 <sc2 +n) 
....................       for(sc1+=n,sc2+=n;0<n;--n) 
....................          *--sc1=*--sc2; 
....................    else 
....................       for(;0<n;--n) 
....................          *sc1++=*sc2++; 
....................   return s1; 
....................   } 
....................  
.................... /* Standard template: char *strcpy(char *s1, const char *s2) 
....................    copies the string s2 including the null character to s1. 
....................    This is a compiler built in to handle the different address 
....................    spaces */ 
....................  
.................... #define strcopy strcpy 
....................  
.................... /* standard template: 
....................    char *strncpy(char *s1, const char *s2, size_t n). 
....................    Copies max of n characters (not following ending '\0') 
....................    from s2 in s1; if s2 has less than n characters, appends 0 */ 
....................  
.................... char *strncpy(char *s1, char *s2, size_t n) 
.................... { 
....................   char *s; 
....................  
....................   for (s = s1; n > 0 && *s2 != '\0'; n--) 
....................      *s++ = *s2++; 
....................   for (; n > 0; n--) 
....................      *s++ = '\0'; 
....................  
....................   return(s1); 
.................... } 
.................... /***********************************************************/ 
....................  
.................... /*concatenation functions*/ 
.................... /* standard template: char *strcat(char *s1, const char *s2) 
.................... appends s2 to s1*/ 
....................  
.................... char *strcat(char *s1, char *s2) 
.................... { 
....................    char *s; 
....................  
....................    for (s = s1; *s != '\0'; ++s); 
....................    while(*s2 != '\0') 
....................    { 
....................       *s = *s2; 
....................       ++s; 
....................       ++s2; 
....................    } 
....................  
....................    *s = '\0'; 
....................    return(s1); 
.................... } 
.................... /* standard template: char *strncat(char *s1, char *s2,size_t n) 
.................... appends not more than n characters from s2 to s1*/ 
....................  
.................... char *strncat(char *s1, char *s2, size_t n) 
.................... { 
....................    char *s; 
....................  
....................    for (s = s1; *s != '\0'; ++s); 
....................    while(*s2 != '\0' && 0<n) 
....................    { 
....................       *s = *s2; 
....................       ++s; 
....................       ++s2; 
....................       --n; 
....................    } 
....................  
....................    *s = '\0'; 
....................    return(s1); 
.................... } 
....................  
.................... /***********************************************************/ 
....................  
....................  
.................... /*comparison functions*/ 
.................... /* standard template: signed int memcmp(void *s1, void *s2). 
....................    Compares s1 & s2; returns -1 if s1<s2, 0 if s1=s2, 1 if s1>s2 */ 
....................  
.................... signed int8 memcmp(void * s1,char *s2,size_t n) 
.................... { 
.................... char *su1, *su2; 
.................... for(su1=s1, su2=s2; 0<n; ++su1, ++su2, --n) 
.................... { 
....................    if(*su1!=*su2) 
....................       return ((*su1<*su2)?-1:+1); 
.................... } 
.................... return 0; 
.................... } 
....................  
.................... /* standard template: int strcmp(const char *s1, const char *s2). 
....................    Compares s1 & s2; returns -1 if s1<s2, 0 if s1=s2, 1 if s1>s2 */ 
....................  
.................... signed int8 strcmp(char *s1, char *s2) 
.................... { 
....................    for (; *s1 == *s2; s1++, s2++) 
....................       if (*s1 == '\0') 
....................          return(0); 
....................    return((*s1 < *s2) ? -1: 1); 
.................... } 
.................... /* standard template: int strcoll(const char *s1, const char *s2). 
....................    Compares s1 & s2; returns -1 if s1<s2, 0 if s1=s2, 1 if s1>s2 */ 
....................  
.................... signed int8 strcoll(char *s1, char *s2) 
.................... { 
....................    for (; *s1 == *s2; s1++, s2++) 
....................       if (*s1 == '\0') 
....................          return(0); 
....................    return((*s1 < *s2) ? -1: 1); 
.................... } 
....................  
.................... /* standard template: 
....................    int strncmp(const char *s1, const char *s2, size_t n). 
....................    Compares max of n characters (not following 0) from s1 to s2; 
....................    returns same as strcmp */ 
....................  
.................... signed int8 strncmp(char *s1, char *s2, size_t n) 
.................... { 
....................    for (; n > 0; s1++, s2++, n--) 
....................       if (*s1 != *s2) 
....................          return((*s1 <*s2) ? -1: 1); 
....................       else if (*s1 == '\0') 
....................          return(0); 
....................    return(0); 
.................... } 
.................... /* standard template: 
....................    int strxfrm(const char *s1, const char *s2, size_t n). 
....................    transforms maximum of n characters from s2 and places them into s1*/ 
.................... size_t strxfrm(char *s1, char *s2, size_t n) 
.................... { 
....................   char *s; 
....................   unsigned int8 n1; 
....................   n1=n; 
....................   for (s = s1; n > 0 && *s2 != '\0'; n--) 
....................      *s++ = *s2++; 
....................   for (; n > 0; n--) 
....................      *s++ = '\0'; 
....................  
....................   return(n1); 
.................... } 
....................  
....................  
....................  
....................  
....................  
.................... /***********************************************************/ 
.................... /*Search functions*/ 
.................... /* standard template: void *memchr(const char *s, int c). 
....................    Finds first occurrence of c in n characters of s */ 
....................  
.................... char *memchr(void *s,unsigned int8 c,size_t n) 
.................... { 
....................    char uc; 
....................    char *su; 
....................    uc=c; 
....................    for(su=s;0<n;++su,--n) 
....................       if(*su==uc) 
....................       return su; 
....................    return NULL; 
.................... } 
....................  
.................... /* standard template: char *strchr(const char *s, int c). 
....................    Finds first occurrence of c in s */ 
....................  
.................... char *strchr(char *s, unsigned int8 c) 
.................... { 
....................    for (; *s != c; s++) 
....................       if (*s == '\0') 
....................          return(0); 
....................    return(s); 
.................... } 
.................... /* standard template: 
....................    size_t strcspn(const char *s1, const char *s2). 
....................    Computes length of max initial segment of s1 that 
....................    consists entirely of characters NOT from s2*/ 
....................  
.................... unsigned int8  strcspn(char *s1, char *s2) 
.................... { 
....................    char *sc1, *sc2; 
....................  
....................    for (sc1 = s1; *sc1 != 0; sc1++) 
....................       for (sc2 = s2; *sc2 != 0; sc2++) 
....................          if (*sc1 == *sc2) 
....................             return(sc1 - s1); 
....................    return(sc1 - s1); 
.................... } 
.................... /* standard template: 
....................    char *strpbrk(const char *s1, const char *s2). 
....................    Locates first occurence of any character from s2 in s1; 
....................    returns s1 if s2 is empty string */ 
....................  
.................... char *strpbrk(char *s1, char *s2) 
.................... { 
....................    char *sc1, *sc2; 
....................  
....................    for (sc1 = s1; *sc1 != 0; sc1++) 
....................       for (sc2 = s2; *sc2 != 0; sc2++) 
....................          if (*sc1 == *sc2) 
....................             return(sc1); 
....................    return(0); 
.................... } 
....................  
....................  
.................... /* standard template: char *strrchr(const char *s, int c). 
....................    Finds last occurrence of c in s */ 
....................  
.................... char *strrchr(char *s, unsigned int8 c) 
.................... { 
....................    char *p; 
....................  
....................    for (p = 0; ; s++) 
....................    { 
....................       if (*s == c) 
....................          p = s; 
....................       if (*s == '\0') 
....................          return(p); 
....................    } 
.................... } 
.................... /* computes length of max initial segment of s1 consisting 
....................    entirely of characters from s2 */ 
....................  
.................... unsigned int8  strspn(char *s1, char *s2) 
.................... { 
....................    char *sc1, *sc2; 
....................  
....................    for (sc1 = s1; *sc1 != 0; sc1++) 
....................       for (sc2 = s2; ; sc2++) 
....................     if (*sc2 == '\0') 
....................        return(sc1 - s1); 
....................          else if (*sc1 == *sc2) 
....................             break; 
....................    return(sc1 - s1); 
.................... } 
.................... /* standard template: 
....................    char *strstr(const char *s1, const char *s2); 
....................    Locates first occurence of character sequence s2 in s1; 
....................    returns 0 if s2 is empty string 
....................  
....................    Uncomment #define FASTER_BUT_MORE_ROM at the top of the 
....................    file to use the faster algorithm */ 
.................... char *strstr(char *s1, char *s2) 
.................... { 
....................    char *s, *t; 
....................  
....................    #ifdef FASTER_BUT_MORE_ROM 
....................    if (*s2 == '\0') 
....................          return(s1); 
....................    #endif 
....................  
....................    while (*s1) 
....................    { 
....................       for(s = s1, t = s2; *t && (*s == *t); ++s, ++t); 
....................  
....................       if (*t == '\0') 
....................          return s1; 
....................       ++s1; 
....................       #ifdef FASTER_BUT_MORE_ROM 
....................          while(*s1 != '\0' && *s1 != *s2) 
....................             ++s1; 
....................       #endif 
....................    } 
....................    return 0; 
.................... } 
....................  
.................... /* standard template: char *strtok(char *s1, const char *s2). 
....................  
....................    Finds next token in s1 delimited by a character from separator 
....................    string s2 (which can be different from call to call).  First call 
....................    starts at beginning of s1 searching for first character NOT 
....................    contained in s2; returns 0 if none is found. 
....................    If one is found, it is the start of first token (return value). 
....................    Function then searches from there for a character contained in s2. 
....................    If none is found, current token extends to end of s1, and subsequent 
....................    searches for a token will return 0.  If one is found, it is 
....................    overwritten by '\0', which terminates current token.  Function saves 
....................    pointer to following character from which next search will start. 
....................    Each subsequent call, with 0 as first argument, starts searching 
....................    from saved pointer */ 
....................  
.................... char *strtok(char *s1, char *s2) 
.................... { 
....................    char *beg, *end; 
....................    static char *save; 
....................  
....................    beg = (s1)? s1: save; 
....................    beg += strspn(beg, s2); 
....................    if (*beg == '\0') 
....................    { 
....................       *save = ' '; 
....................       return(0); 
....................    } 
....................    end = strpbrk(beg, s2); 
....................    if (*end != '\0') 
....................    { 
....................       *end = '\0'; 
....................       end++; 
....................    } 
....................    save = end; 
....................    return(beg); 
.................... } 
....................  
.................... /*****************************************************************/ 
.................... /*Miscellaneous functions*/ 
.................... /* standard template 
.................... maps error number in errnum to an error message string 
.................... Returns: Pointer to string 
.................... */ 
.................... #ifdef _ERRNO 
.................... char * strerror(unsigned int8 errnum) 
.................... { 
.................... char s[15]; 
.................... switch( errnum) 
.................... { 
.................... case 0: 
....................    strcpy(s,"no errors"); 
....................    return s; 
.................... case EDOM : 
....................    strcpy(s,"domain error"); 
....................    return s; 
.................... case ERANGE: 
....................    strcpy(s,"range error"); 
....................    return s; 
.................... } 
.................... } 
.................... #ENDIF 
.................... /* standard template: size_t strlen(const char *s). 
....................    Computes length of s1 (preceding terminating 0) */ 
....................  
.................... unsigned int8 strlen(char *s) 
.................... { 
....................    char *sc; 
....................  
....................    for (sc = s; *sc != 0; sc++); 
....................    return(sc - s); 
.................... } 
....................  
.................... /* standard template: size_t stricmp(const char *s1, const char *s2). 
....................    Compares s1 to s2 ignoring case (upper vs. lower) */ 
....................  
.................... signed int8 stricmp(char *s1, char *s2) 
.................... { 
....................  for(; *s1==*s2||(isalpha(*s1)&&isalpha(*s2)&&(*s1==*s2+32||*s2==*s1+32)); 
....................     s1++, s2++) 
....................     if (*s1 == '\0') 
....................        return(0); 
....................  return((*s1 < *s2) ? -1: 1); 
.................... } 
....................  
....................  
.................... /* standard template: char *strlwr(char *s). 
....................    Replaces uppercase letters by lowercase; 
....................    returns pointer to new string s */ 
....................  
.................... char *strlwr(char *s) 
.................... { 
....................    char *p; 
....................  
....................    for (p = s; *p != '\0'; p++) 
....................       if (*p >= 'A' && *p <='Z') 
....................          *p += 'a' - 'A'; 
....................    return(s); 
.................... } 
....................  
....................  
.................... /************************************************************/ 
....................  
....................  
.................... #endif 
....................  
.................... #ifndef getc 
.................... #define getc getch 
.................... #define getchar getch 
.................... #define puts(s) {printf(s); putchar(13); putchar(10);} 
.................... #define putc putchar 
.................... #endif 
.................... /* maps error number to an error message. Writes a sequence of characters to 
.................... stderr stream thus: if s is not null then string pointed to by s follwed by 
.................... a colon (:) and a space and the appropriate error message returned by strerror 
.................... function with argument errno 
....................  
.................... Returns: no value 
.................... */ 
....................  
.................... #ifdef _ERRNO 
.................... void perror(char *s) 
.................... { 
....................   if(s) 
....................   fprintf(STDERR,"%s: ",s); 
....................   fprintf(STDERR,"%s\r\n",strerror(errno)); 
.................... } 
.................... #endif 
.................... #endif 
....................  
.................... //#include <stdlib.h> 
.................... #include <string.h> 
.................... //////////////////////////////////////////////////////////////////////////// 
.................... ////        (C) Copyright 1996,2008 Custom Computer Services            //// 
.................... //// This source code may only be used by licensed users of the CCS C   //// 
.................... //// compiler.  This source code may only be distributed to other       //// 
.................... //// licensed users of the CCS C compiler.  No other use, reproduction  //// 
.................... //// or distribution is permitted without written permission.           //// 
.................... //// Derivative programs created using this software in object code     //// 
.................... //// form are not restricted in any way.                                //// 
.................... //////////////////////////////////////////////////////////////////////////// 
....................  
.................... #ifndef _STRING 
.................... #define _STRING 
.................... #include <stddef.h> 
.................... #include <ctype.h> 
....................  
....................  
....................  
.................... ////////////////////////////////////////////// 
.................... //// Uncomment the following define to    //// 
.................... //// allow some functions to use a        //// 
.................... //// quicker algorithm, but use more ROM  //// 
.................... ////                                      //// 
.................... //// #define FASTER_BUT_MORE_ROM          //// 
.................... ////////////////////////////////////////////// 
....................  
....................  
....................  
.................... /*Copying functions*/ 
.................... /* standard template: 
....................    void *memmove(void *s1, void *s2, size_t n). 
....................    Copies max of n characters safely (not following ending '\0') 
....................    from s2 in s1; if s2 has less than n characters, appends 0 */ 
....................  
.................... char *memmove(void *s1,char *s2,size_t n) 
.................... { 
....................    char *sc1; 
....................    char *sc2; 
....................    sc1=s1; 
....................    sc2=s2; 
....................    if(sc2<sc1 && sc1 <sc2 +n) 
....................       for(sc1+=n,sc2+=n;0<n;--n) 
....................          *--sc1=*--sc2; 
....................    else 
....................       for(;0<n;--n) 
....................          *sc1++=*sc2++; 
....................   return s1; 
....................   } 
....................  
.................... /* Standard template: char *strcpy(char *s1, const char *s2) 
....................    copies the string s2 including the null character to s1. 
....................    This is a compiler built in to handle the different address 
....................    spaces */ 
....................  
.................... #define strcopy strcpy 
....................  
.................... /* standard template: 
....................    char *strncpy(char *s1, const char *s2, size_t n). 
....................    Copies max of n characters (not following ending '\0') 
....................    from s2 in s1; if s2 has less than n characters, appends 0 */ 
....................  
.................... char *strncpy(char *s1, char *s2, size_t n) 
.................... { 
....................   char *s; 
....................  
....................   for (s = s1; n > 0 && *s2 != '\0'; n--) 
....................      *s++ = *s2++; 
....................   for (; n > 0; n--) 
....................      *s++ = '\0'; 
....................  
....................   return(s1); 
.................... } 
.................... /***********************************************************/ 
....................  
.................... /*concatenation functions*/ 
.................... /* standard template: char *strcat(char *s1, const char *s2) 
.................... appends s2 to s1*/ 
....................  
.................... char *strcat(char *s1, char *s2) 
.................... { 
....................    char *s; 
....................  
....................    for (s = s1; *s != '\0'; ++s); 
....................    while(*s2 != '\0') 
....................    { 
....................       *s = *s2; 
....................       ++s; 
....................       ++s2; 
....................    } 
....................  
....................    *s = '\0'; 
....................    return(s1); 
.................... } 
.................... /* standard template: char *strncat(char *s1, char *s2,size_t n) 
.................... appends not more than n characters from s2 to s1*/ 
....................  
.................... char *strncat(char *s1, char *s2, size_t n) 
.................... { 
....................    char *s; 
....................  
....................    for (s = s1; *s != '\0'; ++s); 
....................    while(*s2 != '\0' && 0<n) 
....................    { 
....................       *s = *s2; 
....................       ++s; 
....................       ++s2; 
....................       --n; 
....................    } 
....................  
....................    *s = '\0'; 
....................    return(s1); 
.................... } 
....................  
.................... /***********************************************************/ 
....................  
....................  
.................... /*comparison functions*/ 
.................... /* standard template: signed int memcmp(void *s1, void *s2). 
....................    Compares s1 & s2; returns -1 if s1<s2, 0 if s1=s2, 1 if s1>s2 */ 
....................  
.................... signed int8 memcmp(void * s1,char *s2,size_t n) 
.................... { 
.................... char *su1, *su2; 
.................... for(su1=s1, su2=s2; 0<n; ++su1, ++su2, --n) 
.................... { 
....................    if(*su1!=*su2) 
....................       return ((*su1<*su2)?-1:+1); 
.................... } 
.................... return 0; 
.................... } 
....................  
.................... /* standard template: int strcmp(const char *s1, const char *s2). 
....................    Compares s1 & s2; returns -1 if s1<s2, 0 if s1=s2, 1 if s1>s2 */ 
....................  
.................... signed int8 strcmp(char *s1, char *s2) 
.................... { 
....................    for (; *s1 == *s2; s1++, s2++) 
....................       if (*s1 == '\0') 
....................          return(0); 
....................    return((*s1 < *s2) ? -1: 1); 
.................... } 
.................... /* standard template: int strcoll(const char *s1, const char *s2). 
....................    Compares s1 & s2; returns -1 if s1<s2, 0 if s1=s2, 1 if s1>s2 */ 
....................  
.................... signed int8 strcoll(char *s1, char *s2) 
.................... { 
....................    for (; *s1 == *s2; s1++, s2++) 
....................       if (*s1 == '\0') 
....................          return(0); 
....................    return((*s1 < *s2) ? -1: 1); 
.................... } 
....................  
.................... /* standard template: 
....................    int strncmp(const char *s1, const char *s2, size_t n). 
....................    Compares max of n characters (not following 0) from s1 to s2; 
....................    returns same as strcmp */ 
....................  
.................... signed int8 strncmp(char *s1, char *s2, size_t n) 
.................... { 
....................    for (; n > 0; s1++, s2++, n--) 
....................       if (*s1 != *s2) 
....................          return((*s1 <*s2) ? -1: 1); 
....................       else if (*s1 == '\0') 
....................          return(0); 
....................    return(0); 
.................... } 
.................... /* standard template: 
....................    int strxfrm(const char *s1, const char *s2, size_t n). 
....................    transforms maximum of n characters from s2 and places them into s1*/ 
.................... size_t strxfrm(char *s1, char *s2, size_t n) 
.................... { 
....................   char *s; 
....................   unsigned int8 n1; 
....................   n1=n; 
....................   for (s = s1; n > 0 && *s2 != '\0'; n--) 
....................      *s++ = *s2++; 
....................   for (; n > 0; n--) 
....................      *s++ = '\0'; 
....................  
....................   return(n1); 
.................... } 
....................  
....................  
....................  
....................  
....................  
.................... /***********************************************************/ 
.................... /*Search functions*/ 
.................... /* standard template: void *memchr(const char *s, int c). 
....................    Finds first occurrence of c in n characters of s */ 
....................  
.................... char *memchr(void *s,unsigned int8 c,size_t n) 
.................... { 
....................    char uc; 
....................    char *su; 
....................    uc=c; 
....................    for(su=s;0<n;++su,--n) 
....................       if(*su==uc) 
....................       return su; 
....................    return NULL; 
.................... } 
....................  
.................... /* standard template: char *strchr(const char *s, int c). 
....................    Finds first occurrence of c in s */ 
....................  
.................... char *strchr(char *s, unsigned int8 c) 
.................... { 
....................    for (; *s != c; s++) 
....................       if (*s == '\0') 
....................          return(0); 
....................    return(s); 
.................... } 
.................... /* standard template: 
....................    size_t strcspn(const char *s1, const char *s2). 
....................    Computes length of max initial segment of s1 that 
....................    consists entirely of characters NOT from s2*/ 
....................  
.................... unsigned int8  strcspn(char *s1, char *s2) 
.................... { 
....................    char *sc1, *sc2; 
....................  
....................    for (sc1 = s1; *sc1 != 0; sc1++) 
....................       for (sc2 = s2; *sc2 != 0; sc2++) 
....................          if (*sc1 == *sc2) 
....................             return(sc1 - s1); 
....................    return(sc1 - s1); 
.................... } 
.................... /* standard template: 
....................    char *strpbrk(const char *s1, const char *s2). 
....................    Locates first occurence of any character from s2 in s1; 
....................    returns s1 if s2 is empty string */ 
....................  
.................... char *strpbrk(char *s1, char *s2) 
.................... { 
....................    char *sc1, *sc2; 
....................  
....................    for (sc1 = s1; *sc1 != 0; sc1++) 
....................       for (sc2 = s2; *sc2 != 0; sc2++) 
....................          if (*sc1 == *sc2) 
....................             return(sc1); 
....................    return(0); 
.................... } 
....................  
....................  
.................... /* standard template: char *strrchr(const char *s, int c). 
....................    Finds last occurrence of c in s */ 
....................  
.................... char *strrchr(char *s, unsigned int8 c) 
.................... { 
....................    char *p; 
....................  
....................    for (p = 0; ; s++) 
....................    { 
....................       if (*s == c) 
....................          p = s; 
....................       if (*s == '\0') 
....................          return(p); 
....................    } 
.................... } 
.................... /* computes length of max initial segment of s1 consisting 
....................    entirely of characters from s2 */ 
....................  
.................... unsigned int8  strspn(char *s1, char *s2) 
.................... { 
....................    char *sc1, *sc2; 
....................  
....................    for (sc1 = s1; *sc1 != 0; sc1++) 
....................       for (sc2 = s2; ; sc2++) 
....................     if (*sc2 == '\0') 
....................        return(sc1 - s1); 
....................          else if (*sc1 == *sc2) 
....................             break; 
....................    return(sc1 - s1); 
.................... } 
.................... /* standard template: 
....................    char *strstr(const char *s1, const char *s2); 
....................    Locates first occurence of character sequence s2 in s1; 
....................    returns 0 if s2 is empty string 
....................  
....................    Uncomment #define FASTER_BUT_MORE_ROM at the top of the 
....................    file to use the faster algorithm */ 
.................... char *strstr(char *s1, char *s2) 
.................... { 
....................    char *s, *t; 
....................  
....................    #ifdef FASTER_BUT_MORE_ROM 
....................    if (*s2 == '\0') 
....................          return(s1); 
....................    #endif 
....................  
....................    while (*s1) 
....................    { 
....................       for(s = s1, t = s2; *t && (*s == *t); ++s, ++t); 
....................  
....................       if (*t == '\0') 
....................          return s1; 
....................       ++s1; 
....................       #ifdef FASTER_BUT_MORE_ROM 
....................          while(*s1 != '\0' && *s1 != *s2) 
....................             ++s1; 
....................       #endif 
....................    } 
....................    return 0; 
.................... } 
....................  
.................... /* standard template: char *strtok(char *s1, const char *s2). 
....................  
....................    Finds next token in s1 delimited by a character from separator 
....................    string s2 (which can be different from call to call).  First call 
....................    starts at beginning of s1 searching for first character NOT 
....................    contained in s2; returns 0 if none is found. 
....................    If one is found, it is the start of first token (return value). 
....................    Function then searches from there for a character contained in s2. 
....................    If none is found, current token extends to end of s1, and subsequent 
....................    searches for a token will return 0.  If one is found, it is 
....................    overwritten by '\0', which terminates current token.  Function saves 
....................    pointer to following character from which next search will start. 
....................    Each subsequent call, with 0 as first argument, starts searching 
....................    from saved pointer */ 
....................  
.................... char *strtok(char *s1, char *s2) 
.................... { 
....................    char *beg, *end; 
....................    static char *save; 
....................  
....................    beg = (s1)? s1: save; 
....................    beg += strspn(beg, s2); 
....................    if (*beg == '\0') 
....................    { 
....................       *save = ' '; 
....................       return(0); 
....................    } 
....................    end = strpbrk(beg, s2); 
....................    if (*end != '\0') 
....................    { 
....................       *end = '\0'; 
....................       end++; 
....................    } 
....................    save = end; 
....................    return(beg); 
.................... } 
....................  
.................... /*****************************************************************/ 
.................... /*Miscellaneous functions*/ 
.................... /* standard template 
.................... maps error number in errnum to an error message string 
.................... Returns: Pointer to string 
.................... */ 
.................... #ifdef _ERRNO 
.................... char * strerror(unsigned int8 errnum) 
.................... { 
.................... char s[15]; 
.................... switch( errnum) 
.................... { 
.................... case 0: 
....................    strcpy(s,"no errors"); 
....................    return s; 
.................... case EDOM : 
....................    strcpy(s,"domain error"); 
....................    return s; 
.................... case ERANGE: 
....................    strcpy(s,"range error"); 
....................    return s; 
.................... } 
.................... } 
.................... #ENDIF 
.................... /* standard template: size_t strlen(const char *s). 
....................    Computes length of s1 (preceding terminating 0) */ 
....................  
.................... unsigned int8 strlen(char *s) 
.................... { 
....................    char *sc; 
....................  
....................    for (sc = s; *sc != 0; sc++); 
....................    return(sc - s); 
.................... } 
....................  
.................... /* standard template: size_t stricmp(const char *s1, const char *s2). 
....................    Compares s1 to s2 ignoring case (upper vs. lower) */ 
....................  
.................... signed int8 stricmp(char *s1, char *s2) 
.................... { 
....................  for(; *s1==*s2||(isalpha(*s1)&&isalpha(*s2)&&(*s1==*s2+32||*s2==*s1+32)); 
....................     s1++, s2++) 
....................     if (*s1 == '\0') 
....................        return(0); 
....................  return((*s1 < *s2) ? -1: 1); 
.................... } 
....................  
....................  
.................... /* standard template: char *strlwr(char *s). 
....................    Replaces uppercase letters by lowercase; 
....................    returns pointer to new string s */ 
....................  
.................... char *strlwr(char *s) 
.................... { 
....................    char *p; 
....................  
....................    for (p = s; *p != '\0'; p++) 
....................       if (*p >= 'A' && *p <='Z') 
....................          *p += 'a' - 'A'; 
....................    return(s); 
.................... } 
....................  
....................  
.................... /************************************************************/ 
....................  
....................  
.................... #endif 
....................  
.................... #endif 
....................  
.................... #include "ds1307.h" 
.................... /////////////////////////////////////////////////////////////////////////////////////// 
.................... ///                               DS1307.C                                           /// 
.................... ///                     Driver for Real Time Clock                                   /// 
.................... ///                     modified by Redpic 08/2006                                   /// 
.................... ///                  http://picmania.garcia-cuervo.com                               /// 
.................... ///                                                                                  /// 
.................... /// void ds1307_init(val)                                                            /// 
.................... ///                  - Enable oscillator without clearing the seconds register       /// 
.................... ///                    used when PIC loses power and DS1307 run from 3V BAT          /// 
.................... ///                  - Config Control Register with next parameters:                 /// 
.................... ///                     DS1307_ALL_DISABLED          All disabled                    /// 
.................... ///                     DS1307_OUT_ON_DISABLED_HIHG  Out to Hight on Disable Out     /// 
.................... ///                     DS1307_OUT_ENABLED           Out Enabled                     /// 
.................... ///                     DS1307_OUT_1_HZ              Freq. Out to 1 Hz               /// 
.................... ///                     DS1307_OUT_4_KHZ             Freq. Out to 4.096 Khz          /// 
.................... ///                     DS1307_OUT_8_KHZ             Freq. Out to 8.192 Khz          /// 
.................... ///                     DS1307_OUT_32_KHZ            Freq. Out to 32.768 Khz         /// 
.................... ///                                                                                  /// 
.................... ///                     Example init:                                                /// 
.................... ///                     ds1307_init(DS1307_ALL_DISABLED);                            /// 
.................... ///                     ds1307_init(DS1307_OUT_ENABLED | DS1307_OUT_1_HZ);           /// 
.................... ///                                                                                  /// 
.................... /// void ds1307_set_date_time(day,mth,year,dow,hour,min,sec) - Set the date/time     /// 
.................... ///                                                                                  /// 
.................... /// void ds1307_get_date(day,mth,year,dow)                   - Get the date          /// 
.................... ///                                                                                  /// 
.................... /// void ds1307_get_time(hr,min,sec)                         - Get the time          /// 
.................... ///                                                                                  /// 
.................... /// char ds1307_read_nvram_byte(char addr)                   - Read byte in address  /// 
.................... ///                                                                                  /// 
.................... /// void ds1307_write_nvram_byte(char addr, char value)      - Write byte in address /// 
.................... ///                                                                                  /// 
.................... /// void ds1307_get_day_of_week(char* ptr)                   - Get string Day Of Week/// 
.................... ///                                                                                  /// 
.................... /// If defined USE_INTERRUPTS all functions disable Global Interrupts on starts and  /// 
.................... ///                           enable Global on ends else usar can do it hiself       /// 
.................... ///                                                                                  /// 
.................... /////////////////////////////////////////////////////////////////////////////////////// 
....................  
.................... #ifndef DS1307_H 
.................... #define DS1307_H 
....................  
.................... #ifndef RTC_SDA 
.................... #define RTC_SDA  PIN_B0 
.................... #define RTC_SCL  PIN_B1 
.................... #endif 
....................  
.................... #define DS1307_ALL_DISABLED         0b00000000 // All disabled 
.................... #define DS1307_OUT_ON_DISABLED_HIHG 0b10000000 // Out to Hight on Disable Out 
.................... #define DS1307_OUT_ENABLED          0b00010000 // Out Enabled 
.................... #define DS1307_OUT_1_HZ             0b00000000 // Freq. Out to 1 Hz 
.................... #define DS1307_OUT_4_KHZ            0b00000001 // Freq. Out to 4.096 Khz 
.................... #define DS1307_OUT_8_KHZ            0b00000010 // Freq. Out to 8.192 Khz 
.................... #define DS1307_OUT_32_KHZ           0b00000011 // Freq. Out to 32.768 Khz 
....................  
.................... #define Start_user_address_nvram    0x08 
.................... #define End_user_address_nvram      0x3f 
....................  
....................  
.................... void ds1307_init(int val); 
.................... void ds1307_set_date_time(byte day, byte mth, byte year, byte dow, byte hr, byte min, byte sec); 
.................... void ds1307_get_date(byte &day, byte &mth, byte &year, byte &dow); 
.................... void ds1307_get_time(byte &hr, byte &min, byte &sec); 
.................... char ds1307_read_nvram_byte(char addr); 
.................... void ds1307_write_nvram_byte(char addr, char value); 
.................... void ds1307_get_day_of_week(char* ptr); 
.................... #endif 
....................  
....................  
.................... //#use i2c(master, sda=RTC_SDA, scl=RTC_SCL) 
....................  
.................... char days_of_week[7][11]={"Lunes\0","Martes\0","Mircoles\0","Jueves\0","Viernes\0","Sbado\0","Domingo\0"}; 
....................  
.................... byte ds1307_bin2bcd(byte binary_value); 
.................... byte ds1307_bcd2bin(byte bcd_value); 
....................  
.................... void ds1307_init(int val){ 
*
0168:  CLRF   x60
....................  
....................    byte seconds = 0; 
....................  
.................... #ifndef USE_INTERRUPTS 
....................    disable_interrupts(global); 
016A:  BCF    FF2.6
016C:  BCF    FF2.7
016E:  BTFSC  FF2.7
0170:  BRA    016C
.................... #endif 
....................  
....................    i2c_start(); 
0172:  BSF    F93.0
0174:  MOVLW  07
0176:  MOVWF  00
0178:  DECFSZ 00,F
017A:  BRA    0178
017C:  BSF    F93.1
017E:  MOVLW  07
0180:  MOVWF  00
0182:  DECFSZ 00,F
0184:  BRA    0182
0186:  BCF    F8A.0
0188:  BCF    F93.0
018A:  MOVLW  07
018C:  MOVWF  00
018E:  DECFSZ 00,F
0190:  BRA    018E
0192:  BCF    F8A.1
0194:  BCF    F93.1
....................    i2c_write(0xD0); 
0196:  MOVLW  D0
0198:  MOVWF  x62
019A:  RCALL  004A
....................    i2c_write(0x00); 
019C:  CLRF   x62
019E:  RCALL  004A
....................    i2c_start(); 
01A0:  BSF    F93.0
01A2:  MOVLW  07
01A4:  MOVWF  00
01A6:  DECFSZ 00,F
01A8:  BRA    01A6
01AA:  BSF    F93.1
01AC:  MOVLW  07
01AE:  MOVWF  00
01B0:  DECFSZ 00,F
01B2:  BRA    01B0
01B4:  BTFSS  F81.1
01B6:  BRA    01B4
01B8:  BCF    F8A.0
01BA:  BCF    F93.0
01BC:  MOVLW  07
01BE:  MOVWF  00
01C0:  DECFSZ 00,F
01C2:  BRA    01C0
01C4:  BCF    F8A.1
01C6:  BCF    F93.1
....................    i2c_write(0xD1); 
01C8:  MOVLW  D1
01CA:  MOVWF  x62
01CC:  RCALL  004A
....................    seconds = ds1307_bcd2bin(i2c_read(0)); 
01CE:  CLRF   00
01D0:  RCALL  00B6
01D2:  MOVFF  01,61
01D6:  MOVFF  01,62
01DA:  RCALL  011C
01DC:  MOVFF  01,60
....................    i2c_stop(); 
01E0:  BCF    F93.0
01E2:  NOP   
01E4:  BSF    F93.1
01E6:  BTFSS  F81.1
01E8:  BRA    01E6
01EA:  MOVLW  07
01EC:  MOVWF  00
01EE:  DECFSZ 00,F
01F0:  BRA    01EE
01F2:  BRA    01F4
01F4:  NOP   
01F6:  BSF    F93.0
01F8:  MOVLW  07
01FA:  MOVWF  00
01FC:  DECFSZ 00,F
01FE:  BRA    01FC
....................    seconds &= 0x7F; 
0200:  BCF    x60.7
....................  
....................    delay_us(3); 
0202:  MOVLW  05
0204:  MOVWF  00
0206:  DECFSZ 00,F
0208:  BRA    0206
020A:  BRA    020C
....................  
....................    i2c_start(); 
020C:  BSF    F93.0
020E:  MOVLW  07
0210:  MOVWF  00
0212:  DECFSZ 00,F
0214:  BRA    0212
0216:  BSF    F93.1
0218:  MOVLW  07
021A:  MOVWF  00
021C:  DECFSZ 00,F
021E:  BRA    021C
0220:  BCF    F8A.0
0222:  BCF    F93.0
0224:  MOVLW  07
0226:  MOVWF  00
0228:  DECFSZ 00,F
022A:  BRA    0228
022C:  BCF    F8A.1
022E:  BCF    F93.1
....................    i2c_write(0xD0); 
0230:  MOVLW  D0
0232:  MOVWF  x62
0234:  RCALL  004A
....................    i2c_write(0x00); 
0236:  CLRF   x62
0238:  RCALL  004A
....................    i2c_write(ds1307_bin2bcd(seconds)); 
023A:  MOVFF  60,61
023E:  BRA    0142
0240:  MOVFF  01,61
0244:  MOVFF  01,62
0248:  RCALL  004A
....................    i2c_start(); 
024A:  BSF    F93.0
024C:  MOVLW  07
024E:  MOVWF  00
0250:  DECFSZ 00,F
0252:  BRA    0250
0254:  BSF    F93.1
0256:  MOVLW  07
0258:  MOVWF  00
025A:  DECFSZ 00,F
025C:  BRA    025A
025E:  BTFSS  F81.1
0260:  BRA    025E
0262:  BCF    F8A.0
0264:  BCF    F93.0
0266:  MOVLW  07
0268:  MOVWF  00
026A:  DECFSZ 00,F
026C:  BRA    026A
026E:  BCF    F8A.1
0270:  BCF    F93.1
....................    i2c_write(0xD0); 
0272:  MOVLW  D0
0274:  MOVWF  x62
0276:  RCALL  004A
....................    i2c_write(0x07); 
0278:  MOVLW  07
027A:  MOVWF  x62
027C:  RCALL  004A
....................    i2c_write(val); 
027E:  MOVFF  5F,62
0282:  RCALL  004A
....................    i2c_stop(); 
0284:  BCF    F93.0
0286:  NOP   
0288:  BSF    F93.1
028A:  BTFSS  F81.1
028C:  BRA    028A
028E:  MOVLW  07
0290:  MOVWF  00
0292:  DECFSZ 00,F
0294:  BRA    0292
0296:  BRA    0298
0298:  NOP   
029A:  BSF    F93.0
029C:  MOVLW  07
029E:  MOVWF  00
02A0:  DECFSZ 00,F
02A2:  BRA    02A0
....................  
.................... #ifndef USE_INTERRUPTS 
....................    enable_interrupts(global); 
02A4:  MOVLW  C0
02A6:  IORWF  FF2,F
.................... #endif 
....................  
.................... } 
02A8:  GOTO   03D6 (RETURN)
....................  
.................... void ds1307_set_date_time(byte day, byte mth, byte year, byte dow, byte hr, byte min, byte sec){ 
....................  
.................... #ifndef USE_INTERRUPTS 
....................    disable_interrupts(global); 
.................... #endif 
....................  
....................   sec &= 0x7F; 
....................   hr &= 0x3F; 
....................  
....................   i2c_start(); 
....................   i2c_write(0xD0); 
....................   i2c_write(0x00); 
....................   i2c_write(ds1307_bin2bcd(sec)); 
....................   i2c_write(ds1307_bin2bcd(min)); 
....................   i2c_write(ds1307_bin2bcd(hr)); 
....................   i2c_write(ds1307_bin2bcd(dow)); 
....................   i2c_write(ds1307_bin2bcd(day)); 
....................   i2c_write(ds1307_bin2bcd(mth)); 
....................   i2c_write(ds1307_bin2bcd(year)); 
....................   i2c_stop(); 
....................  
.................... #ifndef USE_INTERRUPTS 
....................    enable_interrupts(global); 
.................... #endif 
....................  
.................... } 
....................  
.................... void ds1307_get_date(byte &day, byte &mth, byte &year, byte &dow){ 
....................  
.................... #ifndef USE_INTERRUPTS 
....................    disable_interrupts(global); 
.................... #endif 
....................  
....................   i2c_start(); 
....................   i2c_write(0xD0); 
....................   i2c_write(0x03); 
....................   i2c_start(); 
....................   i2c_write(0xD1); 
....................   dow  = ds1307_bcd2bin(i2c_read() & 0x7f); 
....................   day  = ds1307_bcd2bin(i2c_read() & 0x3f); 
....................   mth  = ds1307_bcd2bin(i2c_read() & 0x1f); 
....................   year = ds1307_bcd2bin(i2c_read(0)); 
....................   i2c_stop(); 
....................  
.................... #ifndef USE_INTERRUPTS 
....................    enable_interrupts(global); 
.................... #endif 
....................  
.................... } 
....................  
.................... void ds1307_get_time(byte &hr, byte &min, byte &sec){ 
....................  
.................... #ifndef USE_INTERRUPTS 
....................    disable_interrupts(global); 
*
071C:  BCF    FF2.6
071E:  BCF    FF2.7
0720:  BTFSC  FF2.7
0722:  BRA    071E
.................... #endif 
....................  
....................   i2c_start(); 
0724:  BSF    F93.0
0726:  MOVLW  07
0728:  MOVWF  00
072A:  DECFSZ 00,F
072C:  BRA    072A
072E:  BSF    F93.1
0730:  MOVLW  07
0732:  MOVWF  00
0734:  DECFSZ 00,F
0736:  BRA    0734
0738:  BCF    F8A.0
073A:  BCF    F93.0
073C:  MOVLW  07
073E:  MOVWF  00
0740:  DECFSZ 00,F
0742:  BRA    0740
0744:  BCF    F8A.1
0746:  BCF    F93.1
....................   i2c_write(0xD0); 
0748:  MOVLW  D0
074A:  MOVWF  x62
074C:  RCALL  004A
....................   i2c_write(0x00); 
074E:  CLRF   x62
0750:  RCALL  004A
....................   i2c_start(); 
0752:  BSF    F93.0
0754:  MOVLW  07
0756:  MOVWF  00
0758:  DECFSZ 00,F
075A:  BRA    0758
075C:  BSF    F93.1
075E:  MOVLW  07
0760:  MOVWF  00
0762:  DECFSZ 00,F
0764:  BRA    0762
0766:  BTFSS  F81.1
0768:  BRA    0766
076A:  BCF    F8A.0
076C:  BCF    F93.0
076E:  MOVLW  07
0770:  MOVWF  00
0772:  DECFSZ 00,F
0774:  BRA    0772
0776:  BCF    F8A.1
0778:  BCF    F93.1
....................   i2c_write(0xD1); 
077A:  MOVLW  D1
077C:  MOVWF  x62
077E:  RCALL  004A
....................   sec = ds1307_bcd2bin(i2c_read() & 0x7f); 
0780:  MOVLW  01
0782:  MOVWF  00
0784:  RCALL  00B6
0786:  MOVF   01,W
0788:  ANDLW  7F
078A:  MOVWF  5E
078C:  MOVWF  x62
078E:  RCALL  011C
0790:  MOVFF  01,5D
....................   min = ds1307_bcd2bin(i2c_read() & 0x7f); 
0794:  MOVLW  01
0796:  MOVWF  00
0798:  RCALL  00B6
079A:  MOVF   01,W
079C:  ANDLW  7F
079E:  MOVWF  5E
07A0:  MOVWF  x62
07A2:  RCALL  011C
07A4:  MOVFF  01,5C
....................   hr  = ds1307_bcd2bin(i2c_read(0) & 0x3f); 
07A8:  CLRF   00
07AA:  RCALL  00B6
07AC:  MOVF   01,W
07AE:  ANDLW  3F
07B0:  MOVWF  5E
07B2:  MOVWF  x62
07B4:  RCALL  011C
07B6:  MOVFF  01,5B
....................   i2c_stop(); 
07BA:  BCF    F93.0
07BC:  NOP   
07BE:  BSF    F93.1
07C0:  BTFSS  F81.1
07C2:  BRA    07C0
07C4:  MOVLW  07
07C6:  MOVWF  00
07C8:  DECFSZ 00,F
07CA:  BRA    07C8
07CC:  BRA    07CE
07CE:  NOP   
07D0:  BSF    F93.0
07D2:  MOVLW  07
07D4:  MOVWF  00
07D6:  DECFSZ 00,F
07D8:  BRA    07D6
....................  
.................... #ifndef USE_INTERRUPTS 
....................    enable_interrupts(global); 
07DA:  MOVLW  C0
07DC:  IORWF  FF2,F
.................... #endif 
....................  
.................... } 
....................  
....................  
.................... char ds1307_read_nvram_byte(char addr){ 
....................  
....................    char retval; 
....................  
.................... #ifndef USE_INTERRUPTS 
....................    disable_interrupts(global); 
.................... #endif 
....................  
....................    i2c_start(); 
....................    i2c_write(0xD0); 
....................    i2c_write(addr); 
....................  
....................    i2c_start(); 
....................    i2c_write(0xD1); 
....................    retval = i2c_read(0); 
....................    i2c_stop(); 
....................  
....................    return(retval); 
....................  
.................... #ifndef USE_INTERRUPTS 
....................    enable_interrupts(global); 
.................... #endif 
....................  
.................... } 
....................  
.................... void ds1307_write_nvram_byte(char addr, char value){ 
....................  
.................... #ifndef USE_INTERRUPTS 
....................    disable_interrupts(global); 
.................... #endif 
....................  
....................    i2c_start(); 
....................    i2c_write(0xD0); 
....................    i2c_write(addr); 
....................    i2c_write(value); 
....................    i2c_stop(); 
....................  
.................... #ifndef USE_INTERRUPTS 
....................    enable_interrupts(global); 
.................... #endif 
....................  
.................... } 
....................  
.................... void ds1307_get_day_of_week(char* ptr){ 
....................  
....................    byte lday; 
....................    byte lmonth; 
....................    byte lyr; 
....................    byte ldow; 
....................    ds1307_get_date(lday,lmonth,lyr,ldow); 
....................    sprintf(ptr,"%s",days_of_week[ldow]); 
.................... } 
....................  
.................... /////////////////////////////////////////////////////////////////////////////// 
....................  
.................... byte ds1307_bin2bcd(byte binary_value){ 
....................  
....................   byte temp; 
....................   byte retval; 
....................  
....................   temp = binary_value; 
*
0142:  MOVFF  61,62
....................   retval = 0; 
0146:  CLRF   x63
....................   while(1){ 
....................     if(temp >= 10){ 
0148:  MOVF   x62,W
014A:  SUBLW  09
014C:  BC    0158
....................       temp -= 10; 
014E:  MOVLW  0A
0150:  SUBWF  x62,F
....................       retval += 0x10; 
0152:  MOVLW  10
0154:  ADDWF  x63,F
....................     }else{ 
0156:  BRA    015E
....................       retval += temp; 
0158:  MOVF   x62,W
015A:  ADDWF  x63,F
....................       break; 
015C:  BRA    0160
....................     } 
....................   } 
015E:  BRA    0148
....................   return(retval); 
0160:  MOVFF  63,01
.................... } 
0164:  GOTO   0240 (RETURN)
....................  
.................... byte ds1307_bcd2bin(byte bcd_value){ 
....................  
....................   byte temp; 
....................  
....................   temp = bcd_value; 
*
011C:  MOVFF  62,63
....................   temp >>= 1; 
0120:  BCF    FD8.0
0122:  RRCF   x63,F
....................   temp &= 0x78; 
0124:  MOVLW  78
0126:  ANDWF  x63,F
....................   return(temp + (temp >> 2) + (bcd_value & 0x0f)); 
0128:  RRCF   x63,W
012A:  MOVWF  00
012C:  RRCF   00,F
012E:  MOVLW  3F
0130:  ANDWF  00,F
0132:  MOVF   00,W
0134:  ADDWF  x63,W
0136:  MOVWF  x64
0138:  MOVF   x62,W
013A:  ANDLW  0F
013C:  ADDWF  x64,W
013E:  MOVWF  01
.................... } 
0140:  RETLW  00
....................  
.................... /////////////////////////////////////////////////////////////////////////////// 

Configuration Fuses:
   Word  1: CE3F   IESO FCMEN HSPLL PLL12 CPUDIV4 USBDIV
   Word  2: 0E39   NOBROWNOUT WDT128 NOWDT BORV20 NOPUT VREGEN
   Word  3: 8700   PBADEN CCP2C1 MCLR LPT1OSC
   Word  4: 0081   STVREN NODEBUG NOLVP NOXINST NOICPRT
   Word  5: C00F   NOPROTECT NOCPD NOCPB
   Word  6: E00F   NOWRT NOWRTD NOWRTC NOWRTB
   Word  7: 400F   NOEBTR NOEBTRB
